
kernel.elf:     file format elf32-littlearm


Disassembly of section .text:

c0008000 <_entry>:
c0008000:	e59ff018 	ldr	pc, [pc, #24]	; c0008020 <_vector_reset>
c0008004:	e59ff018 	ldr	pc, [pc, #24]	; c0008024 <_vector_undefined>
c0008008:	e59ff018 	ldr	pc, [pc, #24]	; c0008028 <_vector_swi>
c000800c:	e59ff018 	ldr	pc, [pc, #24]	; c000802c <_vector_prefetch_abort>
c0008010:	e59ff018 	ldr	pc, [pc, #24]	; c0008030 <_vector_data_abort>
c0008014:	e59ff018 	ldr	pc, [pc, #24]	; c0008034 <_vector_reserved>
c0008018:	e59ff018 	ldr	pc, [pc, #24]	; c0008038 <_vector_irq>
c000801c:	e59ff018 	ldr	pc, [pc, #24]	; c000803c <_vector_fiq>

c0008020 <_vector_reset>:
c0008020:	c0008040 	andgt	r8, r0, r0, asr #32

c0008024 <_vector_undefined>:
c0008024:	c00080a4 	andgt	r8, r0, r4, lsr #1

c0008028 <_vector_swi>:
c0008028:	c00080b4 	strhgt	r8, [r0], -r4

c000802c <_vector_prefetch_abort>:
c000802c:	c00080c4 	andgt	r8, r0, r4, asr #1

c0008030 <_vector_data_abort>:
c0008030:	c00080dc 	ldrdgt	r8, [r0], -ip

c0008034 <_vector_reserved>:
c0008034:	c00080f4 	strdgt	r8, [r0], -r4

c0008038 <_vector_irq>:
c0008038:	c0008104 	andgt	r8, r0, r4, lsl #2

c000803c <_vector_fiq>:
c000803c:	c0008180 	andgt	r8, r0, r0, lsl #3

c0008040 <__vector_reset>:
c0008040:	e3a00902 	mov	r0, #32768	; 0x8000
c0008044:	e3a01000 	mov	r1, #0
c0008048:	e8b003fc 	ldm	r0!, {r2, r3, r4, r5, r6, r7, r8, r9}
c000804c:	e8a103fc 	stmia	r1!, {r2, r3, r4, r5, r6, r7, r8, r9}
c0008050:	e8b003fc 	ldm	r0!, {r2, r3, r4, r5, r6, r7, r8, r9}
c0008054:	e8a103fc 	stmia	r1!, {r2, r3, r4, r5, r6, r7, r8, r9}
c0008058:	e3a000d2 	mov	r0, #210	; 0xd2
c000805c:	e121f000 	msr	CPSR_c, r0
c0008060:	e3a0d902 	mov	sp, #32768	; 0x8000
c0008064:	e3a000d7 	mov	r0, #215	; 0xd7
c0008068:	e121f000 	msr	CPSR_c, r0
c000806c:	e3a0da07 	mov	sp, #28672	; 0x7000
c0008070:	e3a000df 	mov	r0, #223	; 0xdf
c0008074:	e121f000 	msr	CPSR_c, r0
c0008078:	e3a0da06 	mov	sp, #24576	; 0x6000
c000807c:	e3a000db 	mov	r0, #219	; 0xdb
c0008080:	e121f000 	msr	CPSR_c, r0
c0008084:	e3a0da05 	mov	sp, #20480	; 0x5000
c0008088:	e3a000d3 	mov	r0, #211	; 0xd3
c000808c:	e121f000 	msr	CPSR_c, r0
c0008090:	e3a0d901 	mov	sp, #16384	; 0x4000
c0008094:	e24dd004 	sub	sp, sp, #4
c0008098:	eb00024f 	bl	c00089dc <cstart>

c000809c <halt>:
c000809c:	e320f002 	wfe
c00080a0:	eafffffd 	b	c000809c <halt>

c00080a4 <__vector_undefined>:
c00080a4:	e24ee004 	sub	lr, lr, #4
c00080a8:	e92d800f 	push	{r0, r1, r2, r3, pc}
c00080ac:	eb000cac 	bl	c000b364 <common_undef_handler>
c00080b0:	e8fd800f 	ldm	sp!, {r0, r1, r2, r3, pc}^

c00080b4 <__vector_swi>:
c00080b4:	e24ee004 	sub	lr, lr, #4
c00080b8:	e92d400f 	push	{r0, r1, r2, r3, lr}
c00080bc:	eb000cb5 	bl	c000b398 <common_swi_handler>
c00080c0:	e8fd800f 	ldm	sp!, {r0, r1, r2, r3, pc}^

c00080c4 <__vector_prefetch_abort>:
c00080c4:	e24ee004 	sub	lr, lr, #4
c00080c8:	e92d400f 	push	{r0, r1, r2, r3, lr}
c00080cc:	ee160f50 	mrc	15, 0, r0, cr6, cr0, {2}
c00080d0:	ee151f30 	mrc	15, 0, r1, cr5, cr0, {1}
c00080d4:	eb000cbc 	bl	c000b3cc <common_pref_handler>
c00080d8:	e8fd800f 	ldm	sp!, {r0, r1, r2, r3, pc}^

c00080dc <__vector_data_abort>:
c00080dc:	e24ee004 	sub	lr, lr, #4
c00080e0:	e92d400f 	push	{r0, r1, r2, r3, lr}
c00080e4:	ee160f10 	mrc	15, 0, r0, cr6, cr0, {0}
c00080e8:	ee151f10 	mrc	15, 0, r1, cr5, cr0, {0}
c00080ec:	eb000cd9 	bl	c000b458 <common_Dabt_handler>
c00080f0:	e8fd800f 	ldm	sp!, {r0, r1, r2, r3, pc}^

c00080f4 <__vector_reserved>:
c00080f4:	e24ee004 	sub	lr, lr, #4
c00080f8:	e92d400f 	push	{r0, r1, r2, r3, lr}
c00080fc:	eb000cf7 	bl	c000b4e0 <common_res_handler>
c0008100:	e8fd800f 	ldm	sp!, {r0, r1, r2, r3, pc}^

c0008104 <__vector_irq>:
c0008104:	e24ee004 	sub	lr, lr, #4
c0008108:	e24dd00c 	sub	sp, sp, #12
c000810c:	e58de008 	str	lr, [sp, #8]
c0008110:	e14fe000 	mrs	lr, SPSR
c0008114:	e58de004 	str	lr, [sp, #4]
c0008118:	e58d0000 	str	r0, [sp]
c000811c:	e1a0000d 	mov	r0, sp
c0008120:	e28dd00c 	add	sp, sp, #12
c0008124:	e10fe000 	mrs	lr, CPSR
c0008128:	e3cee01f 	bic	lr, lr, #31
c000812c:	e38ee013 	orr	lr, lr, #19
c0008130:	e12ff00e 	msr	CPSR_fsxc, lr
c0008134:	e24dd04c 	sub	sp, sp, #76	; 0x4c
c0008138:	e58de044 	str	lr, [sp, #68]	; 0x44
c000813c:	e590e008 	ldr	lr, [r0, #8]
c0008140:	e58de048 	str	lr, [sp, #72]	; 0x48
c0008144:	e590e004 	ldr	lr, [r0, #4]
c0008148:	e58de000 	str	lr, [sp]
c000814c:	e5900000 	ldr	r0, [r0]
c0008150:	e28de004 	add	lr, sp, #4
c0008154:	e8ae1fff 	stmia	lr!, {r0, r1, r2, r3, r4, r5, r6, r7, r8, r9, sl, fp, ip}
c0008158:	e8ce6000 	stmia	lr, {sp, lr}^
c000815c:	e58dd040 	str	sp, [sp, #64]	; 0x40
c0008160:	e1a0000d 	mov	r0, sp
c0008164:	eb000cea 	bl	c000b514 <common_irq_handler>
c0008168:	e8bd0001 	ldmfd	sp!, {r0}
c000816c:	e169f000 	msr	SPSR_fc, r0
c0008170:	e8bd1fff 	pop	{r0, r1, r2, r3, r4, r5, r6, r7, r8, r9, sl, fp, ip}
c0008174:	e8dd6000 	ldm	sp, {sp, lr}^
c0008178:	e28dd00c 	add	sp, sp, #12
c000817c:	e8fdc000 	ldm	sp!, {lr, pc}^

c0008180 <__vector_fiq>:
c0008180:	e24ee004 	sub	lr, lr, #4
c0008184:	e92d400f 	push	{r0, r1, r2, r3, lr}
c0008188:	eb000cf5 	bl	c000b564 <common_fiq_handler>
c000818c:	e8fd800f 	ldm	sp!, {r0, r1, r2, r3, pc}^

c0008190 <cli>:
c0008190:	e10f0000 	mrs	r0, CPSR
c0008194:	e3c00080 	bic	r0, r0, #128	; 0x80
c0008198:	e121f000 	msr	CPSR_c, r0
c000819c:	e1a0f00e 	mov	pc, lr

c00081a0 <sti>:
c00081a0:	e10f0000 	mrs	r0, CPSR
c00081a4:	e3800080 	orr	r0, r0, #128	; 0x80
c00081a8:	e121f000 	msr	CPSR_c, r0
c00081ac:	e1a0f00e 	mov	pc, lr

c00081b0 <start_MMU>:
c00081b0:	e3a02000 	mov	r2, #0
c00081b4:	ee072f17 	mcr	15, 0, r2, cr7, cr7, {0}
c00081b8:	ee082f17 	mcr	15, 0, r2, cr8, cr7, {0}
c00081bc:	ee072f9a 	mcr	15, 0, r2, cr7, cr10, {4}
c00081c0:	e3e02000 	mvn	r2, #0
c00081c4:	ee032f10 	mcr	15, 0, r2, cr3, cr0, {0}
c00081c8:	ee020f10 	mcr	15, 0, r0, cr2, cr0, {0}
c00081cc:	e3a02001 	mov	r2, #1
c00081d0:	ee012f10 	mcr	15, 0, r2, cr1, cr0, {0}
c00081d4:	e12fff1e 	bx	lr

c00081d8 <invalidate_tlbs>:
c00081d8:	e3a02000 	mov	r2, #0
c00081dc:	ee082f17 	mcr	15, 0, r2, cr8, cr7, {0}
c00081e0:	ee072f9a 	mcr	15, 0, r2, cr7, cr10, {4}
c00081e4:	e12fff1e 	bx	lr

c00081e8 <PUT32>:
c00081e8:	e5801000 	str	r1, [r0]
c00081ec:	e12fff1e 	bx	lr

c00081f0 <PUT16>:
c00081f0:	e1c010b0 	strh	r1, [r0]
c00081f4:	e12fff1e 	bx	lr

c00081f8 <GET32>:
c00081f8:	e5900000 	ldr	r0, [r0]
c00081fc:	e12fff1e 	bx	lr

c0008200 <BRANCHTO>:
c0008200:	e12fff10 	bx	r0

c0008204 <dummy>:
c0008204:	e12fff1e 	bx	lr
c0008208:	e1a00000 	nop			; (mov r0, r0)
c000820c:	e1a00000 	nop			; (mov r0, r0)

c0008210 <sleep>:
c0008210:	e52db004 	push	{fp}		; (str fp, [sp, #-4]!)
c0008214:	e28db000 	add	fp, sp, #0
c0008218:	e24dd01c 	sub	sp, sp, #28
c000821c:	e50b0018 	str	r0, [fp, #-24]
c0008220:	e59f3084 	ldr	r3, [pc, #132]	; c00082ac <sleep+0x9c>
c0008224:	e50b3008 	str	r3, [fp, #-8]
c0008228:	e3a03000 	mov	r3, #0
c000822c:	e50b300c 	str	r3, [fp, #-12]
c0008230:	e3a03000 	mov	r3, #0
c0008234:	e50b3010 	str	r3, [fp, #-16]
c0008238:	e51b3018 	ldr	r3, [fp, #-24]
c000823c:	e3530000 	cmp	r3, #0
c0008240:	aa000001 	bge	c000824c <sleep+0x3c>
c0008244:	e3e03000 	mvn	r3, #0
c0008248:	ea000013 	b	c000829c <sleep+0x8c>
c000824c:	e51b2018 	ldr	r2, [fp, #-24]
c0008250:	e1a03002 	mov	r3, r2
c0008254:	e1a03283 	lsl	r3, r3, #5
c0008258:	e0623003 	rsb	r3, r2, r3
c000825c:	e1a03103 	lsl	r3, r3, #2
c0008260:	e0833002 	add	r3, r3, r2
c0008264:	e1a03183 	lsl	r3, r3, #3
c0008268:	e50b3010 	str	r3, [fp, #-16]
c000826c:	e51b3008 	ldr	r3, [fp, #-8]
c0008270:	e5933000 	ldr	r3, [r3]
c0008274:	e50b300c 	str	r3, [fp, #-12]
c0008278:	e1a00000 	nop			; (mov r0, r0)
c000827c:	e51b3008 	ldr	r3, [fp, #-8]
c0008280:	e5932000 	ldr	r2, [r3]
c0008284:	e51b300c 	ldr	r3, [fp, #-12]
c0008288:	e0632002 	rsb	r2, r3, r2
c000828c:	e51b3010 	ldr	r3, [fp, #-16]
c0008290:	e1520003 	cmp	r2, r3
c0008294:	3afffff8 	bcc	c000827c <sleep+0x6c>
c0008298:	e3a03000 	mov	r3, #0
c000829c:	e1a00003 	mov	r0, r3
c00082a0:	e24bd000 	sub	sp, fp, #0
c00082a4:	e49db004 	pop	{fp}		; (ldr fp, [sp], #4)
c00082a8:	e12fff1e 	bx	lr
c00082ac:	c1003004 	tstgt	r0, r4

c00082b0 <init_arm_timer>:
c00082b0:	e52db004 	push	{fp}		; (str fp, [sp, #-4]!)
c00082b4:	e28db000 	add	fp, sp, #0
c00082b8:	e24dd014 	sub	sp, sp, #20
c00082bc:	e50b0010 	str	r0, [fp, #-16]
c00082c0:	e59f3064 	ldr	r3, [pc, #100]	; c000832c <init_arm_timer+0x7c>
c00082c4:	e59f2064 	ldr	r2, [pc, #100]	; c0008330 <init_arm_timer+0x80>
c00082c8:	e5832000 	str	r2, [r3]
c00082cc:	e59f3060 	ldr	r3, [pc, #96]	; c0008334 <init_arm_timer+0x84>
c00082d0:	e50b3008 	str	r3, [fp, #-8]
c00082d4:	e51b3008 	ldr	r3, [fp, #-8]
c00082d8:	e3a02001 	mov	r2, #1
c00082dc:	e5832018 	str	r2, [r3, #24]
c00082e0:	e59f3044 	ldr	r3, [pc, #68]	; c000832c <init_arm_timer+0x7c>
c00082e4:	e5933000 	ldr	r3, [r3]
c00082e8:	e51b2010 	ldr	r2, [fp, #-16]
c00082ec:	e5832000 	str	r2, [r3]
c00082f0:	e59f3034 	ldr	r3, [pc, #52]	; c000832c <init_arm_timer+0x7c>
c00082f4:	e5933000 	ldr	r3, [r3]
c00082f8:	e51b2010 	ldr	r2, [fp, #-16]
c00082fc:	e5832018 	str	r2, [r3, #24]
c0008300:	e59f3024 	ldr	r3, [pc, #36]	; c000832c <init_arm_timer+0x7c>
c0008304:	e5933000 	ldr	r3, [r3]
c0008308:	e3a020f9 	mov	r2, #249	; 0xf9
c000830c:	e583201c 	str	r2, [r3, #28]
c0008310:	e59f3014 	ldr	r3, [pc, #20]	; c000832c <init_arm_timer+0x7c>
c0008314:	e5933000 	ldr	r3, [r3]
c0008318:	e3a020a2 	mov	r2, #162	; 0xa2
c000831c:	e5832008 	str	r2, [r3, #8]
c0008320:	e24bd000 	sub	sp, fp, #0
c0008324:	e49db004 	pop	{fp}		; (ldr fp, [sp], #4)
c0008328:	e12fff1e 	bx	lr
c000832c:	c000f378 	andgt	pc, r0, r8, ror r3	; <UNPREDICTABLE>
c0008330:	c100b400 	tstgt	r0, r0, lsl #8
c0008334:	c100b200 	mrsgt	fp, R8_usr

c0008338 <busy_wait>:
c0008338:	e52db004 	push	{fp}		; (str fp, [sp, #-4]!)
c000833c:	e28db000 	add	fp, sp, #0
c0008340:	e24dd00c 	sub	sp, sp, #12
c0008344:	e50b0008 	str	r0, [fp, #-8]
c0008348:	e51b3008 	ldr	r3, [fp, #-8]
c000834c:	e2432001 	sub	r2, r3, #1
c0008350:	e50b2008 	str	r2, [fp, #-8]
c0008354:	e3530000 	cmp	r3, #0
c0008358:	1afffffa 	bne	c0008348 <busy_wait+0x10>
c000835c:	e24bd000 	sub	sp, fp, #0
c0008360:	e49db004 	pop	{fp}		; (ldr fp, [sp], #4)
c0008364:	e12fff1e 	bx	lr

c0008368 <calibrate_delay>:
c0008368:	e92d4800 	push	{fp, lr}
c000836c:	e28db004 	add	fp, sp, #4
c0008370:	e24dd010 	sub	sp, sp, #16
c0008374:	e3a03008 	mov	r3, #8
c0008378:	e50b300c 	str	r3, [fp, #-12]
c000837c:	e59f3200 	ldr	r3, [pc, #512]	; c0008584 <calibrate_delay+0x21c>
c0008380:	e3a02a01 	mov	r2, #4096	; 0x1000
c0008384:	e5832000 	str	r2, [r3]
c0008388:	e59f01f8 	ldr	r0, [pc, #504]	; c0008588 <calibrate_delay+0x220>
c000838c:	eb000859 	bl	c000a4f8 <printk>
c0008390:	ea000018 	b	c00083f8 <calibrate_delay+0x90>
c0008394:	e59f31f0 	ldr	r3, [pc, #496]	; c000858c <calibrate_delay+0x224>
c0008398:	e5933000 	ldr	r3, [r3]
c000839c:	e50b3010 	str	r3, [fp, #-16]
c00083a0:	e1a00000 	nop			; (mov r0, r0)
c00083a4:	e59f31e0 	ldr	r3, [pc, #480]	; c000858c <calibrate_delay+0x224>
c00083a8:	e5933000 	ldr	r3, [r3]
c00083ac:	e51b2010 	ldr	r2, [fp, #-16]
c00083b0:	e1520003 	cmp	r2, r3
c00083b4:	0afffffa 	beq	c00083a4 <calibrate_delay+0x3c>
c00083b8:	e59f31cc 	ldr	r3, [pc, #460]	; c000858c <calibrate_delay+0x224>
c00083bc:	e5933000 	ldr	r3, [r3]
c00083c0:	e50b3010 	str	r3, [fp, #-16]
c00083c4:	e59f31b8 	ldr	r3, [pc, #440]	; c0008584 <calibrate_delay+0x21c>
c00083c8:	e5933000 	ldr	r3, [r3]
c00083cc:	e1a00003 	mov	r0, r3
c00083d0:	ebffffd8 	bl	c0008338 <busy_wait>
c00083d4:	e59f31b0 	ldr	r3, [pc, #432]	; c000858c <calibrate_delay+0x224>
c00083d8:	e5932000 	ldr	r2, [r3]
c00083dc:	e51b3010 	ldr	r3, [fp, #-16]
c00083e0:	e0633002 	rsb	r3, r3, r2
c00083e4:	e50b3010 	str	r3, [fp, #-16]
c00083e8:	e51b3010 	ldr	r3, [fp, #-16]
c00083ec:	e3530000 	cmp	r3, #0
c00083f0:	0a000000 	beq	c00083f8 <calibrate_delay+0x90>
c00083f4:	ea000008 	b	c000841c <calibrate_delay+0xb4>
c00083f8:	e59f3184 	ldr	r3, [pc, #388]	; c0008584 <calibrate_delay+0x21c>
c00083fc:	e5933000 	ldr	r3, [r3]
c0008400:	e1a02083 	lsl	r2, r3, #1
c0008404:	e59f3178 	ldr	r3, [pc, #376]	; c0008584 <calibrate_delay+0x21c>
c0008408:	e5832000 	str	r2, [r3]
c000840c:	e59f3170 	ldr	r3, [pc, #368]	; c0008584 <calibrate_delay+0x21c>
c0008410:	e5933000 	ldr	r3, [r3]
c0008414:	e3530000 	cmp	r3, #0
c0008418:	1affffdd 	bne	c0008394 <calibrate_delay+0x2c>
c000841c:	e59f3160 	ldr	r3, [pc, #352]	; c0008584 <calibrate_delay+0x21c>
c0008420:	e5933000 	ldr	r3, [r3]
c0008424:	e1a020a3 	lsr	r2, r3, #1
c0008428:	e59f3154 	ldr	r3, [pc, #340]	; c0008584 <calibrate_delay+0x21c>
c000842c:	e5832000 	str	r2, [r3]
c0008430:	e59f314c 	ldr	r3, [pc, #332]	; c0008584 <calibrate_delay+0x21c>
c0008434:	e5933000 	ldr	r3, [r3]
c0008438:	e50b3008 	str	r3, [fp, #-8]
c000843c:	ea000021 	b	c00084c8 <calibrate_delay+0x160>
c0008440:	e59f313c 	ldr	r3, [pc, #316]	; c0008584 <calibrate_delay+0x21c>
c0008444:	e5932000 	ldr	r2, [r3]
c0008448:	e51b3008 	ldr	r3, [fp, #-8]
c000844c:	e1822003 	orr	r2, r2, r3
c0008450:	e59f312c 	ldr	r3, [pc, #300]	; c0008584 <calibrate_delay+0x21c>
c0008454:	e5832000 	str	r2, [r3]
c0008458:	e59f312c 	ldr	r3, [pc, #300]	; c000858c <calibrate_delay+0x224>
c000845c:	e5933000 	ldr	r3, [r3]
c0008460:	e50b3010 	str	r3, [fp, #-16]
c0008464:	e1a00000 	nop			; (mov r0, r0)
c0008468:	e59f311c 	ldr	r3, [pc, #284]	; c000858c <calibrate_delay+0x224>
c000846c:	e5933000 	ldr	r3, [r3]
c0008470:	e51b2010 	ldr	r2, [fp, #-16]
c0008474:	e1520003 	cmp	r2, r3
c0008478:	0afffffa 	beq	c0008468 <calibrate_delay+0x100>
c000847c:	e59f3108 	ldr	r3, [pc, #264]	; c000858c <calibrate_delay+0x224>
c0008480:	e5933000 	ldr	r3, [r3]
c0008484:	e50b3010 	str	r3, [fp, #-16]
c0008488:	e59f30f4 	ldr	r3, [pc, #244]	; c0008584 <calibrate_delay+0x21c>
c000848c:	e5933000 	ldr	r3, [r3]
c0008490:	e1a00003 	mov	r0, r3
c0008494:	ebffffa7 	bl	c0008338 <busy_wait>
c0008498:	e59f30ec 	ldr	r3, [pc, #236]	; c000858c <calibrate_delay+0x224>
c000849c:	e5932000 	ldr	r2, [r3]
c00084a0:	e51b3010 	ldr	r3, [fp, #-16]
c00084a4:	e1520003 	cmp	r2, r3
c00084a8:	0a000006 	beq	c00084c8 <calibrate_delay+0x160>
c00084ac:	e51b3008 	ldr	r3, [fp, #-8]
c00084b0:	e1e02003 	mvn	r2, r3
c00084b4:	e59f30c8 	ldr	r3, [pc, #200]	; c0008584 <calibrate_delay+0x21c>
c00084b8:	e5933000 	ldr	r3, [r3]
c00084bc:	e0022003 	and	r2, r2, r3
c00084c0:	e59f30bc 	ldr	r3, [pc, #188]	; c0008584 <calibrate_delay+0x21c>
c00084c4:	e5832000 	str	r2, [r3]
c00084c8:	e51b300c 	ldr	r3, [fp, #-12]
c00084cc:	e2432001 	sub	r2, r3, #1
c00084d0:	e50b200c 	str	r2, [fp, #-12]
c00084d4:	e3530000 	cmp	r3, #0
c00084d8:	0a000005 	beq	c00084f4 <calibrate_delay+0x18c>
c00084dc:	e51b3008 	ldr	r3, [fp, #-8]
c00084e0:	e1a030a3 	lsr	r3, r3, #1
c00084e4:	e50b3008 	str	r3, [fp, #-8]
c00084e8:	e51b3008 	ldr	r3, [fp, #-8]
c00084ec:	e3530000 	cmp	r3, #0
c00084f0:	1affffd2 	bne	c0008440 <calibrate_delay+0xd8>
c00084f4:	e59f3088 	ldr	r3, [pc, #136]	; c0008584 <calibrate_delay+0x21c>
c00084f8:	e5932000 	ldr	r2, [r3]
c00084fc:	e1a03002 	mov	r3, r2
c0008500:	e1a03103 	lsl	r3, r3, #2
c0008504:	e0833002 	add	r3, r3, r2
c0008508:	e1a02103 	lsl	r2, r3, #2
c000850c:	e0833002 	add	r3, r3, r2
c0008510:	e1a03103 	lsl	r3, r3, #2
c0008514:	e1a01003 	mov	r1, r3
c0008518:	e59f3064 	ldr	r3, [pc, #100]	; c0008584 <calibrate_delay+0x21c>
c000851c:	e5932000 	ldr	r2, [r3]
c0008520:	e59f3068 	ldr	r3, [pc, #104]	; c0008590 <calibrate_delay+0x228>
c0008524:	e0830392 	umull	r0, r3, r2, r3
c0008528:	e1a0e623 	lsr	lr, r3, #12
c000852c:	e59f3050 	ldr	r3, [pc, #80]	; c0008584 <calibrate_delay+0x21c>
c0008530:	e5932000 	ldr	r2, [r3]
c0008534:	e59f3058 	ldr	r3, [pc, #88]	; c0008594 <calibrate_delay+0x22c>
c0008538:	e0830392 	umull	r0, r3, r2, r3
c000853c:	e1a02223 	lsr	r2, r3, #4
c0008540:	e59f304c 	ldr	r3, [pc, #76]	; c0008594 <calibrate_delay+0x22c>
c0008544:	e0830392 	umull	r0, r3, r2, r3
c0008548:	e1a0c2a3 	lsr	ip, r3, #5
c000854c:	e1a0300c 	mov	r3, ip
c0008550:	e1a03103 	lsl	r3, r3, #2
c0008554:	e083300c 	add	r3, r3, ip
c0008558:	e1a00103 	lsl	r0, r3, #2
c000855c:	e0833000 	add	r3, r3, r0
c0008560:	e1a03103 	lsl	r3, r3, #2
c0008564:	e063c002 	rsb	ip, r3, r2
c0008568:	e59f0028 	ldr	r0, [pc, #40]	; c0008598 <calibrate_delay+0x230>
c000856c:	e1a0200e 	mov	r2, lr
c0008570:	e1a0300c 	mov	r3, ip
c0008574:	eb0007df 	bl	c000a4f8 <printk>
c0008578:	e24bd004 	sub	sp, fp, #4
c000857c:	e8bd4800 	pop	{fp, lr}
c0008580:	e12fff1e 	bx	lr
c0008584:	c000f2ec 	andgt	pc, r0, ip, ror #5
c0008588:	c000ebc4 	andgt	lr, r0, r4, asr #23
c000858c:	c000f2e8 	andgt	pc, r0, r8, ror #5
c0008590:	d1b71759 			; <UNDEFINED> instruction: 0xd1b71759
c0008594:	51eb851f 	mvnpl	r8, pc, lsl r5
c0008598:	c000ebdc 	ldrdgt	lr, [r0], -ip

c000859c <_sleep>:
c000859c:	e92d4800 	push	{fp, lr}
c00085a0:	e28db004 	add	fp, sp, #4
c00085a4:	e24dd010 	sub	sp, sp, #16
c00085a8:	e50b0010 	str	r0, [fp, #-16]
c00085ac:	e59f303c 	ldr	r3, [pc, #60]	; c00085f0 <_sleep+0x54>
c00085b0:	e5933000 	ldr	r3, [r3]
c00085b4:	e50b3008 	str	r3, [fp, #-8]
c00085b8:	ea000000 	b	c00085c0 <_sleep+0x24>
c00085bc:	eb00031d 	bl	c0009238 <sys_task_yield>
c00085c0:	e59f3028 	ldr	r3, [pc, #40]	; c00085f0 <_sleep+0x54>
c00085c4:	e5932000 	ldr	r2, [r3]
c00085c8:	e51b3008 	ldr	r3, [fp, #-8]
c00085cc:	e0632002 	rsb	r2, r3, r2
c00085d0:	e51b3010 	ldr	r3, [fp, #-16]
c00085d4:	e1520003 	cmp	r2, r3
c00085d8:	3afffff7 	bcc	c00085bc <_sleep+0x20>
c00085dc:	e3a03000 	mov	r3, #0
c00085e0:	e1a00003 	mov	r0, r3
c00085e4:	e24bd004 	sub	sp, fp, #4
c00085e8:	e8bd4800 	pop	{fp, lr}
c00085ec:	e12fff1e 	bx	lr
c00085f0:	c000f2e8 	andgt	pc, r0, r8, ror #5

c00085f4 <_delay>:
c00085f4:	e52db004 	push	{fp}		; (str fp, [sp, #-4]!)
c00085f8:	e28db000 	add	fp, sp, #0
c00085fc:	e24dd00c 	sub	sp, sp, #12
c0008600:	e50b0008 	str	r0, [fp, #-8]
c0008604:	e50b100c 	str	r1, [fp, #-12]
c0008608:	e24bd000 	sub	sp, fp, #0
c000860c:	e49db004 	pop	{fp}		; (ldr fp, [sp], #4)
c0008610:	e12fff1e 	bx	lr

c0008614 <do_sleep>:
c0008614:	e92d4800 	push	{fp, lr}
c0008618:	e28db004 	add	fp, sp, #4
c000861c:	e24dd010 	sub	sp, sp, #16
c0008620:	e50b0010 	str	r0, [fp, #-16]
c0008624:	e50b1014 	str	r1, [fp, #-20]
c0008628:	e51b2010 	ldr	r2, [fp, #-16]
c000862c:	e1a03002 	mov	r3, r2
c0008630:	e1a03103 	lsl	r3, r3, #2
c0008634:	e0833002 	add	r3, r3, r2
c0008638:	e1a02103 	lsl	r2, r3, #2
c000863c:	e0833002 	add	r3, r3, r2
c0008640:	e1a03103 	lsl	r3, r3, #2
c0008644:	e50b3008 	str	r3, [fp, #-8]
c0008648:	e51b3008 	ldr	r3, [fp, #-8]
c000864c:	e3530000 	cmp	r3, #0
c0008650:	0a000002 	beq	c0008660 <do_sleep+0x4c>
c0008654:	e51b0008 	ldr	r0, [fp, #-8]
c0008658:	ebffffcf 	bl	c000859c <_sleep>
c000865c:	ea000002 	b	c000866c <do_sleep+0x58>
c0008660:	e51b0010 	ldr	r0, [fp, #-16]
c0008664:	e51b1014 	ldr	r1, [fp, #-20]
c0008668:	ebffffe1 	bl	c00085f4 <_delay>
c000866c:	e24bd004 	sub	sp, fp, #4
c0008670:	e8bd4800 	pop	{fp, lr}
c0008674:	e12fff1e 	bx	lr

c0008678 <sys_sleep>:
c0008678:	e92d4800 	push	{fp, lr}
c000867c:	e28db004 	add	fp, sp, #4
c0008680:	e24dd008 	sub	sp, sp, #8
c0008684:	e50b0008 	str	r0, [fp, #-8]
c0008688:	e51b0008 	ldr	r0, [fp, #-8]
c000868c:	e3a01001 	mov	r1, #1
c0008690:	ebffffdf 	bl	c0008614 <do_sleep>
c0008694:	e3a03000 	mov	r3, #0
c0008698:	e1a00003 	mov	r0, r3
c000869c:	e24bd004 	sub	sp, fp, #4
c00086a0:	e8bd4800 	pop	{fp, lr}
c00086a4:	e12fff1e 	bx	lr

c00086a8 <sys_nanosleep>:
c00086a8:	e92d4800 	push	{fp, lr}
c00086ac:	e28db004 	add	fp, sp, #4
c00086b0:	e24dd008 	sub	sp, sp, #8
c00086b4:	e50b0008 	str	r0, [fp, #-8]
c00086b8:	e50b100c 	str	r1, [fp, #-12]
c00086bc:	e51b3008 	ldr	r3, [fp, #-8]
c00086c0:	e5933000 	ldr	r3, [r3]
c00086c4:	e3530000 	cmp	r3, #0
c00086c8:	da000004 	ble	c00086e0 <sys_nanosleep+0x38>
c00086cc:	e51b3008 	ldr	r3, [fp, #-8]
c00086d0:	e5933000 	ldr	r3, [r3]
c00086d4:	e1a00003 	mov	r0, r3
c00086d8:	e3a01001 	mov	r1, #1
c00086dc:	ebffffcc 	bl	c0008614 <do_sleep>
c00086e0:	e51b3008 	ldr	r3, [fp, #-8]
c00086e4:	e5933004 	ldr	r3, [r3, #4]
c00086e8:	e3530000 	cmp	r3, #0
c00086ec:	da000004 	ble	c0008704 <sys_nanosleep+0x5c>
c00086f0:	e51b3008 	ldr	r3, [fp, #-8]
c00086f4:	e5933004 	ldr	r3, [r3, #4]
c00086f8:	e1a00003 	mov	r0, r3
c00086fc:	e59f1014 	ldr	r1, [pc, #20]	; c0008718 <sys_nanosleep+0x70>
c0008700:	ebffffc3 	bl	c0008614 <do_sleep>
c0008704:	e3a03000 	mov	r3, #0
c0008708:	e1a00003 	mov	r0, r3
c000870c:	e24bd004 	sub	sp, fp, #4
c0008710:	e8bd4800 	pop	{fp, lr}
c0008714:	e12fff1e 	bx	lr
c0008718:	3b9aca00 	blcc	be6baf20 <CPSR_IRQ_INHIBIT+0xbe6baea0>

c000871c <init_i8259>:
c000871c:	e52db004 	push	{fp}		; (str fp, [sp, #-4]!)
c0008720:	e28db000 	add	fp, sp, #0
c0008724:	e24dd00c 	sub	sp, sp, #12
c0008728:	e1a03000 	mov	r3, r0
c000872c:	e54b3005 	strb	r3, [fp, #-5]
c0008730:	e24bd000 	sub	sp, fp, #0
c0008734:	e49db004 	pop	{fp}		; (ldr fp, [sp], #4)
c0008738:	e12fff1e 	bx	lr

c000873c <init_i8253>:
c000873c:	e52db004 	push	{fp}		; (str fp, [sp, #-4]!)
c0008740:	e28db000 	add	fp, sp, #0
c0008744:	e24dd00c 	sub	sp, sp, #12
c0008748:	e50b0008 	str	r0, [fp, #-8]
c000874c:	e24bd000 	sub	sp, fp, #0
c0008750:	e49db004 	pop	{fp}		; (ldr fp, [sp], #4)
c0008754:	e12fff1e 	bx	lr

c0008758 <enable_irq>:
c0008758:	e52db004 	push	{fp}		; (str fp, [sp, #-4]!)
c000875c:	e28db000 	add	fp, sp, #0
c0008760:	e24dd00c 	sub	sp, sp, #12
c0008764:	e50b0008 	str	r0, [fp, #-8]
c0008768:	e24bd000 	sub	sp, fp, #0
c000876c:	e49db004 	pop	{fp}		; (ldr fp, [sp], #4)
c0008770:	e12fff1e 	bx	lr

c0008774 <disable_irq>:
c0008774:	e52db004 	push	{fp}		; (str fp, [sp, #-4]!)
c0008778:	e28db000 	add	fp, sp, #0
c000877c:	e24dd00c 	sub	sp, sp, #12
c0008780:	e50b0008 	str	r0, [fp, #-8]
c0008784:	e24bd000 	sub	sp, fp, #0
c0008788:	e49db004 	pop	{fp}		; (ldr fp, [sp], #4)
c000878c:	e12fff1e 	bx	lr

c0008790 <sys_putchar>:
c0008790:	e52db004 	push	{fp}		; (str fp, [sp, #-4]!)
c0008794:	e28db000 	add	fp, sp, #0
c0008798:	e24dd00c 	sub	sp, sp, #12
c000879c:	e50b0008 	str	r0, [fp, #-8]
c00087a0:	e51b3008 	ldr	r3, [fp, #-8]
c00087a4:	e1a00003 	mov	r0, r3
c00087a8:	e24bd000 	sub	sp, fp, #0
c00087ac:	e49db004 	pop	{fp}		; (ldr fp, [sp], #4)
c00087b0:	e12fff1e 	bx	lr

c00087b4 <init_paging>:
c00087b4:	e92d4800 	push	{fp, lr}
c00087b8:	e28db004 	add	fp, sp, #4
c00087bc:	e24dd018 	sub	sp, sp, #24
c00087c0:	e50b0018 	str	r0, [fp, #-24]
c00087c4:	e51b3018 	ldr	r3, [fp, #-24]
c00087c8:	e50b300c 	str	r3, [fp, #-12]
c00087cc:	e51b3018 	ldr	r3, [fp, #-24]
c00087d0:	e2833901 	add	r3, r3, #16384	; 0x4000
c00087d4:	e50b3018 	str	r3, [fp, #-24]
c00087d8:	e51b3018 	ldr	r3, [fp, #-24]
c00087dc:	e50b3010 	str	r3, [fp, #-16]
c00087e0:	e51b000c 	ldr	r0, [fp, #-12]
c00087e4:	e3a01000 	mov	r1, #0
c00087e8:	e3a02901 	mov	r2, #16384	; 0x4000
c00087ec:	eb00110d 	bl	c000cc28 <memset>
c00087f0:	e3a03000 	mov	r3, #0
c00087f4:	e50b3008 	str	r3, [fp, #-8]
c00087f8:	ea000018 	b	c0008860 <init_paging+0xac>
c00087fc:	e51b3008 	ldr	r3, [fp, #-8]
c0008800:	e1a03103 	lsl	r3, r3, #2
c0008804:	e51b200c 	ldr	r2, [fp, #-12]
c0008808:	e0822003 	add	r2, r2, r3
c000880c:	e51b3008 	ldr	r3, [fp, #-8]
c0008810:	e2833b03 	add	r3, r3, #3072	; 0xc00
c0008814:	e1a03103 	lsl	r3, r3, #2
c0008818:	e51b100c 	ldr	r1, [fp, #-12]
c000881c:	e0813003 	add	r3, r1, r3
c0008820:	e51b1018 	ldr	r1, [fp, #-24]
c0008824:	e3811001 	orr	r1, r1, #1
c0008828:	e5831000 	str	r1, [r3]
c000882c:	e5933000 	ldr	r3, [r3]
c0008830:	e5823000 	str	r3, [r2]
c0008834:	e51b3018 	ldr	r3, [fp, #-24]
c0008838:	e1a00003 	mov	r0, r3
c000883c:	e3a01000 	mov	r1, #0
c0008840:	e3a02b01 	mov	r2, #1024	; 0x400
c0008844:	eb0010f7 	bl	c000cc28 <memset>
c0008848:	e51b3018 	ldr	r3, [fp, #-24]
c000884c:	e2833b01 	add	r3, r3, #1024	; 0x400
c0008850:	e50b3018 	str	r3, [fp, #-24]
c0008854:	e51b3008 	ldr	r3, [fp, #-8]
c0008858:	e2833001 	add	r3, r3, #1
c000885c:	e50b3008 	str	r3, [fp, #-8]
c0008860:	e51b3008 	ldr	r3, [fp, #-8]
c0008864:	e3530013 	cmp	r3, #19
c0008868:	9affffe3 	bls	c00087fc <init_paging+0x48>
c000886c:	e3a03000 	mov	r3, #0
c0008870:	e50b3008 	str	r3, [fp, #-8]
c0008874:	ea00000a 	b	c00088a4 <init_paging+0xf0>
c0008878:	e51b3008 	ldr	r3, [fp, #-8]
c000887c:	e1a03103 	lsl	r3, r3, #2
c0008880:	e51b2010 	ldr	r2, [fp, #-16]
c0008884:	e0823003 	add	r3, r2, r3
c0008888:	e51b2008 	ldr	r2, [fp, #-8]
c000888c:	e1a02602 	lsl	r2, r2, #12
c0008890:	e3822003 	orr	r2, r2, #3
c0008894:	e5832000 	str	r2, [r3]
c0008898:	e51b3008 	ldr	r3, [fp, #-8]
c000889c:	e2833001 	add	r3, r3, #1
c00088a0:	e50b3008 	str	r3, [fp, #-8]
c00088a4:	e51b3018 	ldr	r3, [fp, #-24]
c00088a8:	e2833901 	add	r3, r3, #16384	; 0x4000
c00088ac:	e3c33dff 	bic	r3, r3, #16320	; 0x3fc0
c00088b0:	e3c3303f 	bic	r3, r3, #63	; 0x3f
c00088b4:	e1a02623 	lsr	r2, r3, #12
c00088b8:	e51b3008 	ldr	r3, [fp, #-8]
c00088bc:	e1520003 	cmp	r2, r3
c00088c0:	8affffec 	bhi	c0008878 <init_paging+0xc4>
c00088c4:	e3a03000 	mov	r3, #0
c00088c8:	e50b3008 	str	r3, [fp, #-8]
c00088cc:	ea00000c 	b	c0008904 <init_paging+0x150>
c00088d0:	e51b3008 	ldr	r3, [fp, #-8]
c00088d4:	e2833a01 	add	r3, r3, #4096	; 0x1000
c00088d8:	e1a03103 	lsl	r3, r3, #2
c00088dc:	e51b2010 	ldr	r2, [fp, #-16]
c00088e0:	e0823003 	add	r3, r2, r3
c00088e4:	e51b2008 	ldr	r2, [fp, #-8]
c00088e8:	e1a02602 	lsl	r2, r2, #12
c00088ec:	e2822202 	add	r2, r2, #536870912	; 0x20000000
c00088f0:	e3822003 	orr	r2, r2, #3
c00088f4:	e5832000 	str	r2, [r3]
c00088f8:	e51b3008 	ldr	r3, [fp, #-8]
c00088fc:	e2833001 	add	r3, r3, #1
c0008900:	e50b3008 	str	r3, [fp, #-8]
c0008904:	e51b3008 	ldr	r3, [fp, #-8]
c0008908:	e3530e22 	cmp	r3, #544	; 0x220
c000890c:	3affffef 	bcc	c00088d0 <init_paging+0x11c>
c0008910:	e51b3010 	ldr	r3, [fp, #-16]
c0008914:	e2833c53 	add	r3, r3, #21248	; 0x5300
c0008918:	e28330c0 	add	r3, r3, #192	; 0xc0
c000891c:	e3a02003 	mov	r2, #3
c0008920:	e5832000 	str	r2, [r3]
c0008924:	e51b300c 	ldr	r3, [fp, #-12]
c0008928:	ee023f10 	mcr	15, 0, r3, cr2, cr0, {0}
c000892c:	e3e00000 	mvn	r0, #0
c0008930:	ee030f10 	mcr	15, 0, r0, cr3, cr0, {0}
c0008934:	e3a00001 	mov	r0, #1
c0008938:	ee010f10 	mcr	15, 0, r0, cr1, cr0, {0}
c000893c:	e1a00000 	nop			; (mov r0, r0)
c0008940:	e1a00000 	nop			; (mov r0, r0)
c0008944:	e51b3018 	ldr	r3, [fp, #-24]
c0008948:	e1a00003 	mov	r0, r3
c000894c:	e24bd004 	sub	sp, fp, #4
c0008950:	e8bd4800 	pop	{fp, lr}
c0008954:	e12fff1e 	bx	lr

c0008958 <init_ram>:
c0008958:	e52db004 	push	{fp}		; (str fp, [sp, #-4]!)
c000895c:	e28db000 	add	fp, sp, #0
c0008960:	e24dd00c 	sub	sp, sp, #12
c0008964:	e50b0008 	str	r0, [fp, #-8]
c0008968:	e59f3034 	ldr	r3, [pc, #52]	; c00089a4 <init_ram+0x4c>
c000896c:	e51b2008 	ldr	r2, [fp, #-8]
c0008970:	e5832000 	str	r2, [r3]
c0008974:	e59f3028 	ldr	r3, [pc, #40]	; c00089a4 <init_ram+0x4c>
c0008978:	e3e0220e 	mvn	r2, #-536870912	; 0xe0000000
c000897c:	e5832004 	str	r2, [r3, #4]
c0008980:	e59f301c 	ldr	r3, [pc, #28]	; c00089a4 <init_ram+0x4c>
c0008984:	e3a02000 	mov	r2, #0
c0008988:	e5832008 	str	r2, [r3, #8]
c000898c:	e59f3010 	ldr	r3, [pc, #16]	; c00089a4 <init_ram+0x4c>
c0008990:	e3a02000 	mov	r2, #0
c0008994:	e583200c 	str	r2, [r3, #12]
c0008998:	e24bd000 	sub	sp, fp, #0
c000899c:	e49db004 	pop	{fp}		; (ldr fp, [sp], #4)
c00089a0:	e12fff1e 	bx	lr
c00089a4:	c000f394 	mulgt	r0, r4, r3

c00089a8 <md_startup>:
c00089a8:	e92d4800 	push	{fp, lr}
c00089ac:	e28db004 	add	fp, sp, #4
c00089b0:	e24dd008 	sub	sp, sp, #8
c00089b4:	e50b0008 	str	r0, [fp, #-8]
c00089b8:	e50b100c 	str	r1, [fp, #-12]
c00089bc:	e51b000c 	ldr	r0, [fp, #-12]
c00089c0:	ebffff7b 	bl	c00087b4 <init_paging>
c00089c4:	e50b000c 	str	r0, [fp, #-12]
c00089c8:	e51b000c 	ldr	r0, [fp, #-12]
c00089cc:	ebffffe1 	bl	c0008958 <init_ram>
c00089d0:	e24bd004 	sub	sp, fp, #4
c00089d4:	e8bd4800 	pop	{fp, lr}
c00089d8:	e12fff1e 	bx	lr

c00089dc <cstart>:
c00089dc:	e92d4800 	push	{fp, lr}
c00089e0:	e28db004 	add	fp, sp, #4
c00089e4:	e24dd018 	sub	sp, sp, #24
c00089e8:	e50b0018 	str	r0, [fp, #-24]
c00089ec:	e50b101c 	str	r1, [fp, #-28]
c00089f0:	e59f3168 	ldr	r3, [pc, #360]	; c0008b60 <cstart+0x184>
c00089f4:	e3c33dff 	bic	r3, r3, #16320	; 0x3fc0
c00089f8:	e3c3303f 	bic	r3, r3, #63	; 0x3f
c00089fc:	e50b300c 	str	r3, [fp, #-12]
c0008a00:	e51b200c 	ldr	r2, [fp, #-12]
c0008a04:	e59f3158 	ldr	r3, [pc, #344]	; c0008b64 <cstart+0x188>
c0008a08:	e5832000 	str	r2, [r3]
c0008a0c:	e59f3150 	ldr	r3, [pc, #336]	; c0008b64 <cstart+0x188>
c0008a10:	e5933000 	ldr	r3, [r3]
c0008a14:	e2833901 	add	r3, r3, #16384	; 0x4000
c0008a18:	e1a02003 	mov	r2, r3
c0008a1c:	e59f3144 	ldr	r3, [pc, #324]	; c0008b68 <cstart+0x18c>
c0008a20:	e5832000 	str	r2, [r3]
c0008a24:	e51b300c 	ldr	r3, [fp, #-12]
c0008a28:	e2833101 	add	r3, r3, #1073741824	; 0x40000000
c0008a2c:	e51b001c 	ldr	r0, [fp, #-28]
c0008a30:	e1a01003 	mov	r1, r3
c0008a34:	ebffffdb 	bl	c00089a8 <md_startup>
c0008a38:	eb000887 	bl	c000ac5c <uart_init>
c0008a3c:	e59f3128 	ldr	r3, [pc, #296]	; c0008b6c <cstart+0x190>
c0008a40:	e50b3010 	str	r3, [fp, #-16]
c0008a44:	e59f0124 	ldr	r0, [pc, #292]	; c0008b70 <cstart+0x194>
c0008a48:	ebfffe18 	bl	c00082b0 <init_arm_timer>
c0008a4c:	ebfffdcf 	bl	c0008190 <cli>
c0008a50:	e28dd103 	add	sp, sp, #-1073741824	; 0xc0000000
c0008a54:	e28bb103 	add	fp, fp, #-1073741824	; 0xc0000000
c0008a58:	e3a03001 	mov	r3, #1
c0008a5c:	e50b3008 	str	r3, [fp, #-8]
c0008a60:	ea000009 	b	c0008a8c <cstart+0xb0>
c0008a64:	e59f30f8 	ldr	r3, [pc, #248]	; c0008b64 <cstart+0x188>
c0008a68:	e5932000 	ldr	r2, [r3]
c0008a6c:	e51b3008 	ldr	r3, [fp, #-8]
c0008a70:	e1a03103 	lsl	r3, r3, #2
c0008a74:	e0823003 	add	r3, r2, r3
c0008a78:	e3a02000 	mov	r2, #0
c0008a7c:	e5832000 	str	r2, [r3]
c0008a80:	e51b3008 	ldr	r3, [fp, #-8]
c0008a84:	e2833001 	add	r3, r3, #1
c0008a88:	e50b3008 	str	r3, [fp, #-8]
c0008a8c:	e51b3008 	ldr	r3, [fp, #-8]
c0008a90:	e3530013 	cmp	r3, #19
c0008a94:	dafffff2 	ble	c0008a64 <cstart+0x88>
c0008a98:	e3a03000 	mov	r3, #0
c0008a9c:	e50b3008 	str	r3, [fp, #-8]
c0008aa0:	ea00000d 	b	c0008adc <cstart+0x100>
c0008aa4:	e59f30b8 	ldr	r3, [pc, #184]	; c0008b64 <cstart+0x188>
c0008aa8:	e5932000 	ldr	r2, [r3]
c0008aac:	e51b3008 	ldr	r3, [fp, #-8]
c0008ab0:	e1a03103 	lsl	r3, r3, #2
c0008ab4:	e0823003 	add	r3, r2, r3
c0008ab8:	e5933000 	ldr	r3, [r3]
c0008abc:	e1a00003 	mov	r0, r3
c0008ac0:	e51b1010 	ldr	r1, [fp, #-16]
c0008ac4:	eb00092a 	bl	c000af74 <HexToString>
c0008ac8:	e51b0010 	ldr	r0, [fp, #-16]
c0008acc:	eb0008f1 	bl	c000ae98 <uart_puts>
c0008ad0:	e51b3008 	ldr	r3, [fp, #-8]
c0008ad4:	e2833001 	add	r3, r3, #1
c0008ad8:	e50b3008 	str	r3, [fp, #-8]
c0008adc:	e51b3008 	ldr	r3, [fp, #-8]
c0008ae0:	e3530013 	cmp	r3, #19
c0008ae4:	daffffee 	ble	c0008aa4 <cstart+0xc8>
c0008ae8:	e3a03000 	mov	r3, #0
c0008aec:	e50b3008 	str	r3, [fp, #-8]
c0008af0:	ea00000e 	b	c0008b30 <cstart+0x154>
c0008af4:	e59f3068 	ldr	r3, [pc, #104]	; c0008b64 <cstart+0x188>
c0008af8:	e5932000 	ldr	r2, [r3]
c0008afc:	e51b3008 	ldr	r3, [fp, #-8]
c0008b00:	e2833b03 	add	r3, r3, #3072	; 0xc00
c0008b04:	e1a03103 	lsl	r3, r3, #2
c0008b08:	e0823003 	add	r3, r2, r3
c0008b0c:	e5933000 	ldr	r3, [r3]
c0008b10:	e1a00003 	mov	r0, r3
c0008b14:	e51b1010 	ldr	r1, [fp, #-16]
c0008b18:	eb000915 	bl	c000af74 <HexToString>
c0008b1c:	e51b0010 	ldr	r0, [fp, #-16]
c0008b20:	eb0008dc 	bl	c000ae98 <uart_puts>
c0008b24:	e51b3008 	ldr	r3, [fp, #-8]
c0008b28:	e2833001 	add	r3, r3, #1
c0008b2c:	e50b3008 	str	r3, [fp, #-8]
c0008b30:	e51b3008 	ldr	r3, [fp, #-8]
c0008b34:	e3530013 	cmp	r3, #19
c0008b38:	daffffed 	ble	c0008af4 <cstart+0x118>
c0008b3c:	e3a0f103 	mov	pc, #-1073741824	; 0xc0000000
c0008b40:	e3a0320b 	mov	r3, #-1342177280	; 0xb0000000
c0008b44:	e50b3014 	str	r3, [fp, #-20]
c0008b48:	e51b3014 	ldr	r3, [fp, #-20]
c0008b4c:	e3a02001 	mov	r2, #1
c0008b50:	e5832000 	str	r2, [r3]
c0008b54:	e3a00f7d 	mov	r0, #500	; 0x1f4
c0008b58:	ebfffdac 	bl	c0008210 <sleep>
c0008b5c:	eaffffcd 	b	c0008a98 <cstart+0xbc>
c0008b60:	c001f414 	andgt	pc, r1, r4, lsl r4	; <UNPREDICTABLE>
c0008b64:	c000f30c 	andgt	pc, r0, ip, lsl #6
c0008b68:	c000f310 	andgt	pc, r0, r0, lsl r3	; <UNPREDICTABLE>
c0008b6c:	c000ec08 	andgt	lr, r0, r8, lsl #24
c0008b70:	000f4240 	andeq	r4, pc, r0, asr #4

c0008b74 <schedule>:
c0008b74:	e52db004 	push	{fp}		; (str fp, [sp, #-4]!)
c0008b78:	e28db000 	add	fp, sp, #0
c0008b7c:	e24dd00c 	sub	sp, sp, #12
c0008b80:	e59f30b4 	ldr	r3, [pc, #180]	; c0008c3c <schedule+0xc8>
c0008b84:	e5933000 	ldr	r3, [r3]
c0008b88:	e50b3008 	str	r3, [fp, #-8]
c0008b8c:	e51b3008 	ldr	r3, [fp, #-8]
c0008b90:	e5933018 	ldr	r3, [r3, #24]
c0008b94:	e50b3008 	str	r3, [fp, #-8]
c0008b98:	e51b3008 	ldr	r3, [fp, #-8]
c0008b9c:	e3530000 	cmp	r3, #0
c0008ba0:	1a000002 	bne	c0008bb0 <schedule+0x3c>
c0008ba4:	e59f3094 	ldr	r3, [pc, #148]	; c0008c40 <schedule+0xcc>
c0008ba8:	e5933000 	ldr	r3, [r3]
c0008bac:	e50b3008 	str	r3, [fp, #-8]
c0008bb0:	e59f3084 	ldr	r3, [pc, #132]	; c0008c3c <schedule+0xc8>
c0008bb4:	e5933000 	ldr	r3, [r3]
c0008bb8:	e51b2008 	ldr	r2, [fp, #-8]
c0008bbc:	e1520003 	cmp	r2, r3
c0008bc0:	1a000000 	bne	c0008bc8 <schedule+0x54>
c0008bc4:	ea000009 	b	c0008bf0 <schedule+0x7c>
c0008bc8:	e51b3008 	ldr	r3, [fp, #-8]
c0008bcc:	e5933004 	ldr	r3, [r3, #4]
c0008bd0:	e3530000 	cmp	r3, #0
c0008bd4:	0a000004 	beq	c0008bec <schedule+0x78>
c0008bd8:	e51b3008 	ldr	r3, [fp, #-8]
c0008bdc:	e5933008 	ldr	r3, [r3, #8]
c0008be0:	e3530001 	cmp	r3, #1
c0008be4:	1a000000 	bne	c0008bec <schedule+0x78>
c0008be8:	ea000000 	b	c0008bf0 <schedule+0x7c>
c0008bec:	eaffffe6 	b	c0008b8c <schedule+0x18>
c0008bf0:	e59f3044 	ldr	r3, [pc, #68]	; c0008c3c <schedule+0xc8>
c0008bf4:	e5933000 	ldr	r3, [r3]
c0008bf8:	e51b2008 	ldr	r2, [fp, #-8]
c0008bfc:	e1520003 	cmp	r2, r3
c0008c00:	1a000007 	bne	c0008c24 <schedule+0xb0>
c0008c04:	e51b3008 	ldr	r3, [fp, #-8]
c0008c08:	e5933008 	ldr	r3, [r3, #8]
c0008c0c:	e3530001 	cmp	r3, #1
c0008c10:	1a000000 	bne	c0008c18 <schedule+0xa4>
c0008c14:	ea000005 	b	c0008c30 <schedule+0xbc>
c0008c18:	e59f3024 	ldr	r3, [pc, #36]	; c0008c44 <schedule+0xd0>
c0008c1c:	e5933000 	ldr	r3, [r3]
c0008c20:	e50b3008 	str	r3, [fp, #-8]
c0008c24:	e59f301c 	ldr	r3, [pc, #28]	; c0008c48 <schedule+0xd4>
c0008c28:	e3a02000 	mov	r2, #0
c0008c2c:	e5832000 	str	r2, [r3]
c0008c30:	e24bd000 	sub	sp, fp, #0
c0008c34:	e49db004 	pop	{fp}		; (ldr fp, [sp], #4)
c0008c38:	e12fff1e 	bx	lr
c0008c3c:	c000f38c 	andgt	pc, r0, ip, lsl #7
c0008c40:	c000f388 	andgt	pc, r0, r8, lsl #7
c0008c44:	c000f380 	andgt	pc, r0, r0, lsl #7
c0008c48:	c000f384 	andgt	pc, r0, r4, lsl #7

c0008c4c <sleep_on>:
c0008c4c:	e92d4800 	push	{fp, lr}
c0008c50:	e28db004 	add	fp, sp, #4
c0008c54:	e24dd018 	sub	sp, sp, #24
c0008c58:	e50b0018 	str	r0, [fp, #-24]
c0008c5c:	e59f30b0 	ldr	r3, [pc, #176]	; c0008d14 <sleep_on+0xc8>
c0008c60:	e5933000 	ldr	r3, [r3]
c0008c64:	e50b3014 	str	r3, [fp, #-20]
c0008c68:	e51b3018 	ldr	r3, [fp, #-24]
c0008c6c:	e5933000 	ldr	r3, [r3]
c0008c70:	e50b3010 	str	r3, [fp, #-16]
c0008c74:	e51b3018 	ldr	r3, [fp, #-24]
c0008c78:	e24b2014 	sub	r2, fp, #20
c0008c7c:	e5832000 	str	r2, [r3]
c0008c80:	e59f308c 	ldr	r3, [pc, #140]	; c0008d14 <sleep_on+0xc8>
c0008c84:	e5933000 	ldr	r3, [r3]
c0008c88:	e3e02000 	mvn	r2, #0
c0008c8c:	e5832008 	str	r2, [r3, #8]
c0008c90:	ebffffb7 	bl	c0008b74 <schedule>
c0008c94:	e51b3018 	ldr	r3, [fp, #-24]
c0008c98:	e5932000 	ldr	r2, [r3]
c0008c9c:	e24b3014 	sub	r3, fp, #20
c0008ca0:	e1520003 	cmp	r2, r3
c0008ca4:	1a000003 	bne	c0008cb8 <sleep_on+0x6c>
c0008ca8:	e51b2010 	ldr	r2, [fp, #-16]
c0008cac:	e51b3018 	ldr	r3, [fp, #-24]
c0008cb0:	e5832000 	str	r2, [r3]
c0008cb4:	ea000013 	b	c0008d08 <sleep_on+0xbc>
c0008cb8:	e51b3018 	ldr	r3, [fp, #-24]
c0008cbc:	e5933000 	ldr	r3, [r3]
c0008cc0:	e50b3008 	str	r3, [fp, #-8]
c0008cc4:	e51b3008 	ldr	r3, [fp, #-8]
c0008cc8:	e50b300c 	str	r3, [fp, #-12]
c0008ccc:	e51b3008 	ldr	r3, [fp, #-8]
c0008cd0:	e5933004 	ldr	r3, [r3, #4]
c0008cd4:	e50b3008 	str	r3, [fp, #-8]
c0008cd8:	e24b3014 	sub	r3, fp, #20
c0008cdc:	e51b2008 	ldr	r2, [fp, #-8]
c0008ce0:	e1520003 	cmp	r2, r3
c0008ce4:	1a000004 	bne	c0008cfc <sleep_on+0xb0>
c0008ce8:	e51b3008 	ldr	r3, [fp, #-8]
c0008cec:	e5932004 	ldr	r2, [r3, #4]
c0008cf0:	e51b300c 	ldr	r3, [fp, #-12]
c0008cf4:	e5832004 	str	r2, [r3, #4]
c0008cf8:	ea000002 	b	c0008d08 <sleep_on+0xbc>
c0008cfc:	e51b3008 	ldr	r3, [fp, #-8]
c0008d00:	e3530000 	cmp	r3, #0
c0008d04:	1affffee 	bne	c0008cc4 <sleep_on+0x78>
c0008d08:	e24bd004 	sub	sp, fp, #4
c0008d0c:	e8bd4800 	pop	{fp, lr}
c0008d10:	e12fff1e 	bx	lr
c0008d14:	c000f38c 	andgt	pc, r0, ip, lsl #7

c0008d18 <wake_up>:
c0008d18:	e52db004 	push	{fp}		; (str fp, [sp, #-4]!)
c0008d1c:	e28db000 	add	fp, sp, #0
c0008d20:	e24dd014 	sub	sp, sp, #20
c0008d24:	e50b0010 	str	r0, [fp, #-16]
c0008d28:	e50b1014 	str	r1, [fp, #-20]
c0008d2c:	e51b3010 	ldr	r3, [fp, #-16]
c0008d30:	e5933000 	ldr	r3, [r3]
c0008d34:	e50b3008 	str	r3, [fp, #-8]
c0008d38:	ea000009 	b	c0008d64 <wake_up+0x4c>
c0008d3c:	e51b3008 	ldr	r3, [fp, #-8]
c0008d40:	e5933000 	ldr	r3, [r3]
c0008d44:	e3a02001 	mov	r2, #1
c0008d48:	e5832008 	str	r2, [r3, #8]
c0008d4c:	e51b3008 	ldr	r3, [fp, #-8]
c0008d50:	e5933004 	ldr	r3, [r3, #4]
c0008d54:	e50b3008 	str	r3, [fp, #-8]
c0008d58:	e51b3014 	ldr	r3, [fp, #-20]
c0008d5c:	e2433001 	sub	r3, r3, #1
c0008d60:	e50b3014 	str	r3, [fp, #-20]
c0008d64:	e51b3008 	ldr	r3, [fp, #-8]
c0008d68:	e3530000 	cmp	r3, #0
c0008d6c:	0a000002 	beq	c0008d7c <wake_up+0x64>
c0008d70:	e51b3014 	ldr	r3, [fp, #-20]
c0008d74:	e3530000 	cmp	r3, #0
c0008d78:	1affffef 	bne	c0008d3c <wake_up+0x24>
c0008d7c:	e24bd000 	sub	sp, fp, #0
c0008d80:	e49db004 	pop	{fp}		; (ldr fp, [sp], #4)
c0008d84:	e12fff1e 	bx	lr

c0008d88 <add_task>:
c0008d88:	e52db004 	push	{fp}		; (str fp, [sp, #-4]!)
c0008d8c:	e28db000 	add	fp, sp, #0
c0008d90:	e24dd014 	sub	sp, sp, #20
c0008d94:	e50b0010 	str	r0, [fp, #-16]
c0008d98:	e59f305c 	ldr	r3, [pc, #92]	; c0008dfc <add_task+0x74>
c0008d9c:	e5933000 	ldr	r3, [r3]
c0008da0:	e3530000 	cmp	r3, #0
c0008da4:	1a000003 	bne	c0008db8 <add_task+0x30>
c0008da8:	e59f304c 	ldr	r3, [pc, #76]	; c0008dfc <add_task+0x74>
c0008dac:	e51b2010 	ldr	r2, [fp, #-16]
c0008db0:	e5832000 	str	r2, [r3]
c0008db4:	ea00000d 	b	c0008df0 <add_task+0x68>
c0008db8:	e59f303c 	ldr	r3, [pc, #60]	; c0008dfc <add_task+0x74>
c0008dbc:	e5933000 	ldr	r3, [r3]
c0008dc0:	e50b3008 	str	r3, [fp, #-8]
c0008dc4:	e51b3008 	ldr	r3, [fp, #-8]
c0008dc8:	e50b300c 	str	r3, [fp, #-12]
c0008dcc:	e51b3008 	ldr	r3, [fp, #-8]
c0008dd0:	e5933018 	ldr	r3, [r3, #24]
c0008dd4:	e50b3008 	str	r3, [fp, #-8]
c0008dd8:	e51b3008 	ldr	r3, [fp, #-8]
c0008ddc:	e3530000 	cmp	r3, #0
c0008de0:	1afffff7 	bne	c0008dc4 <add_task+0x3c>
c0008de4:	e51b300c 	ldr	r3, [fp, #-12]
c0008de8:	e51b2010 	ldr	r2, [fp, #-16]
c0008dec:	e5832018 	str	r2, [r3, #24]
c0008df0:	e24bd000 	sub	sp, fp, #0
c0008df4:	e49db004 	pop	{fp}		; (ldr fp, [sp], #4)
c0008df8:	e12fff1e 	bx	lr
c0008dfc:	c000f388 	andgt	pc, r0, r8, lsl #7

c0008e00 <remove_task>:
c0008e00:	e52db004 	push	{fp}		; (str fp, [sp, #-4]!)
c0008e04:	e28db000 	add	fp, sp, #0
c0008e08:	e24dd014 	sub	sp, sp, #20
c0008e0c:	e50b0010 	str	r0, [fp, #-16]
c0008e10:	e59f30a0 	ldr	r3, [pc, #160]	; c0008eb8 <remove_task+0xb8>
c0008e14:	e5933000 	ldr	r3, [r3]
c0008e18:	e3530000 	cmp	r3, #0
c0008e1c:	0a000022 	beq	c0008eac <remove_task+0xac>
c0008e20:	e59f3090 	ldr	r3, [pc, #144]	; c0008eb8 <remove_task+0xb8>
c0008e24:	e5933000 	ldr	r3, [r3]
c0008e28:	e51b2010 	ldr	r2, [fp, #-16]
c0008e2c:	e1520003 	cmp	r2, r3
c0008e30:	1a000005 	bne	c0008e4c <remove_task+0x4c>
c0008e34:	e59f307c 	ldr	r3, [pc, #124]	; c0008eb8 <remove_task+0xb8>
c0008e38:	e5933000 	ldr	r3, [r3]
c0008e3c:	e5932018 	ldr	r2, [r3, #24]
c0008e40:	e59f3070 	ldr	r3, [pc, #112]	; c0008eb8 <remove_task+0xb8>
c0008e44:	e5832000 	str	r2, [r3]
c0008e48:	ea000017 	b	c0008eac <remove_task+0xac>
c0008e4c:	e59f3064 	ldr	r3, [pc, #100]	; c0008eb8 <remove_task+0xb8>
c0008e50:	e5933000 	ldr	r3, [r3]
c0008e54:	e50b3008 	str	r3, [fp, #-8]
c0008e58:	e51b3008 	ldr	r3, [fp, #-8]
c0008e5c:	e50b300c 	str	r3, [fp, #-12]
c0008e60:	e51b3008 	ldr	r3, [fp, #-8]
c0008e64:	e5933018 	ldr	r3, [r3, #24]
c0008e68:	e50b3008 	str	r3, [fp, #-8]
c0008e6c:	e51b2008 	ldr	r2, [fp, #-8]
c0008e70:	e51b3010 	ldr	r3, [fp, #-16]
c0008e74:	e1520003 	cmp	r2, r3
c0008e78:	1a000000 	bne	c0008e80 <remove_task+0x80>
c0008e7c:	ea000002 	b	c0008e8c <remove_task+0x8c>
c0008e80:	e51b3008 	ldr	r3, [fp, #-8]
c0008e84:	e3530000 	cmp	r3, #0
c0008e88:	1afffff2 	bne	c0008e58 <remove_task+0x58>
c0008e8c:	e51b2008 	ldr	r2, [fp, #-8]
c0008e90:	e51b3010 	ldr	r3, [fp, #-16]
c0008e94:	e1520003 	cmp	r2, r3
c0008e98:	1a000003 	bne	c0008eac <remove_task+0xac>
c0008e9c:	e51b3008 	ldr	r3, [fp, #-8]
c0008ea0:	e5932018 	ldr	r2, [r3, #24]
c0008ea4:	e51b300c 	ldr	r3, [fp, #-12]
c0008ea8:	e5832018 	str	r2, [r3, #24]
c0008eac:	e24bd000 	sub	sp, fp, #0
c0008eb0:	e49db004 	pop	{fp}		; (ldr fp, [sp], #4)
c0008eb4:	e12fff1e 	bx	lr
c0008eb8:	c000f388 	andgt	pc, r0, r8, lsl #7

c0008ebc <get_task>:
c0008ebc:	e52db004 	push	{fp}		; (str fp, [sp, #-4]!)
c0008ec0:	e28db000 	add	fp, sp, #0
c0008ec4:	e24dd014 	sub	sp, sp, #20
c0008ec8:	e50b0010 	str	r0, [fp, #-16]
c0008ecc:	e59f304c 	ldr	r3, [pc, #76]	; c0008f20 <get_task+0x64>
c0008ed0:	e5933000 	ldr	r3, [r3]
c0008ed4:	e50b3008 	str	r3, [fp, #-8]
c0008ed8:	ea000008 	b	c0008f00 <get_task+0x44>
c0008edc:	e51b3008 	ldr	r3, [fp, #-8]
c0008ee0:	e5932004 	ldr	r2, [r3, #4]
c0008ee4:	e51b3010 	ldr	r3, [fp, #-16]
c0008ee8:	e1520003 	cmp	r2, r3
c0008eec:	1a000000 	bne	c0008ef4 <get_task+0x38>
c0008ef0:	ea000005 	b	c0008f0c <get_task+0x50>
c0008ef4:	e51b3008 	ldr	r3, [fp, #-8]
c0008ef8:	e5933018 	ldr	r3, [r3, #24]
c0008efc:	e50b3008 	str	r3, [fp, #-8]
c0008f00:	e51b3008 	ldr	r3, [fp, #-8]
c0008f04:	e3530000 	cmp	r3, #0
c0008f08:	1afffff3 	bne	c0008edc <get_task+0x20>
c0008f0c:	e51b3008 	ldr	r3, [fp, #-8]
c0008f10:	e1a00003 	mov	r0, r3
c0008f14:	e24bd000 	sub	sp, fp, #0
c0008f18:	e49db004 	pop	{fp}		; (ldr fp, [sp], #4)
c0008f1c:	e12fff1e 	bx	lr
c0008f20:	c000f388 	andgt	pc, r0, r8, lsl #7

c0008f24 <sys_task_create>:
c0008f24:	e92d4800 	push	{fp, lr}
c0008f28:	e28db004 	add	fp, sp, #4
c0008f2c:	e24dd020 	sub	sp, sp, #32
c0008f30:	e50b0018 	str	r0, [fp, #-24]
c0008f34:	e50b101c 	str	r1, [fp, #-28]
c0008f38:	e50b2020 	str	r2, [fp, #-32]
c0008f3c:	e51b3018 	ldr	r3, [fp, #-24]
c0008f40:	e50b3008 	str	r3, [fp, #-8]
c0008f44:	e51b3008 	ldr	r3, [fp, #-8]
c0008f48:	e2033003 	and	r3, r3, #3
c0008f4c:	e3530000 	cmp	r3, #0
c0008f50:	0a000001 	beq	c0008f5c <sys_task_create+0x38>
c0008f54:	e3a03000 	mov	r3, #0
c0008f58:	ea00004d 	b	c0009094 <sys_task_create+0x170>
c0008f5c:	e3a00a01 	mov	r0, #4096	; 0x1000
c0008f60:	eb000507 	bl	c000a384 <kmalloc>
c0008f64:	e50b000c 	str	r0, [fp, #-12]
c0008f68:	e51b300c 	ldr	r3, [fp, #-12]
c0008f6c:	e3530000 	cmp	r3, #0
c0008f70:	1a000001 	bne	c0008f7c <sys_task_create+0x58>
c0008f74:	e3a03000 	mov	r3, #0
c0008f78:	ea000045 	b	c0009094 <sys_task_create+0x170>
c0008f7c:	e51b300c 	ldr	r3, [fp, #-12]
c0008f80:	e50b3010 	str	r3, [fp, #-16]
c0008f84:	e51b0010 	ldr	r0, [fp, #-16]
c0008f88:	e3a01000 	mov	r1, #0
c0008f8c:	e3a02020 	mov	r2, #32
c0008f90:	eb000f24 	bl	c000cc28 <memset>
c0008f94:	e51b300c 	ldr	r3, [fp, #-12]
c0008f98:	e2833a01 	add	r3, r3, #4096	; 0x1000
c0008f9c:	e1a02003 	mov	r2, r3
c0008fa0:	e51b3010 	ldr	r3, [fp, #-16]
c0008fa4:	e5832000 	str	r2, [r3]
c0008fa8:	e59f30f4 	ldr	r3, [pc, #244]	; c00090a4 <sys_task_create+0x180>
c0008fac:	e5933000 	ldr	r3, [r3]
c0008fb0:	e2831001 	add	r1, r3, #1
c0008fb4:	e59f20e8 	ldr	r2, [pc, #232]	; c00090a4 <sys_task_create+0x180>
c0008fb8:	e5821000 	str	r1, [r2]
c0008fbc:	e51b2010 	ldr	r2, [fp, #-16]
c0008fc0:	e5823004 	str	r3, [r2, #4]
c0008fc4:	e51b3010 	ldr	r3, [fp, #-16]
c0008fc8:	e3a02001 	mov	r2, #1
c0008fcc:	e5832008 	str	r2, [r3, #8]
c0008fd0:	e51b3010 	ldr	r3, [fp, #-16]
c0008fd4:	e3a02004 	mov	r2, #4
c0008fd8:	e583200c 	str	r2, [r3, #12]
c0008fdc:	e51b3010 	ldr	r3, [fp, #-16]
c0008fe0:	e3a02000 	mov	r2, #0
c0008fe4:	e5832014 	str	r2, [r3, #20]
c0008fe8:	e51b3010 	ldr	r3, [fp, #-16]
c0008fec:	e3a02000 	mov	r2, #0
c0008ff0:	e5832018 	str	r2, [r3, #24]
c0008ff4:	e51b3010 	ldr	r3, [fp, #-16]
c0008ff8:	e59f20a8 	ldr	r2, [pc, #168]	; c00090a8 <sys_task_create+0x184>
c0008ffc:	e583201c 	str	r2, [r3, #28]
c0009000:	e51b3008 	ldr	r3, [fp, #-8]
c0009004:	e3530000 	cmp	r3, #0
c0009008:	0a00000c 	beq	c0009040 <sys_task_create+0x11c>
c000900c:	e51b3008 	ldr	r3, [fp, #-8]
c0009010:	e2433004 	sub	r3, r3, #4
c0009014:	e50b3008 	str	r3, [fp, #-8]
c0009018:	e51b3008 	ldr	r3, [fp, #-8]
c000901c:	e51b2020 	ldr	r2, [fp, #-32]
c0009020:	e5832000 	str	r2, [r3]
c0009024:	e51b3008 	ldr	r3, [fp, #-8]
c0009028:	e2433004 	sub	r3, r3, #4
c000902c:	e50b3008 	str	r3, [fp, #-8]
c0009030:	e51b3008 	ldr	r3, [fp, #-8]
c0009034:	e3a02000 	mov	r2, #0
c0009038:	e5832000 	str	r2, [r3]
c000903c:	ea000011 	b	c0009088 <sys_task_create+0x164>
c0009040:	e51b3010 	ldr	r3, [fp, #-16]
c0009044:	e5933000 	ldr	r3, [r3]
c0009048:	e2432004 	sub	r2, r3, #4
c000904c:	e51b3010 	ldr	r3, [fp, #-16]
c0009050:	e5832000 	str	r2, [r3]
c0009054:	e51b3010 	ldr	r3, [fp, #-16]
c0009058:	e5933000 	ldr	r3, [r3]
c000905c:	e51b2020 	ldr	r2, [fp, #-32]
c0009060:	e5832000 	str	r2, [r3]
c0009064:	e51b3010 	ldr	r3, [fp, #-16]
c0009068:	e5933000 	ldr	r3, [r3]
c000906c:	e2432004 	sub	r2, r3, #4
c0009070:	e51b3010 	ldr	r3, [fp, #-16]
c0009074:	e5832000 	str	r2, [r3]
c0009078:	e51b3010 	ldr	r3, [fp, #-16]
c000907c:	e5933000 	ldr	r3, [r3]
c0009080:	e3a02000 	mov	r2, #0
c0009084:	e5832000 	str	r2, [r3]
c0009088:	e51b0010 	ldr	r0, [fp, #-16]
c000908c:	ebffff3d 	bl	c0008d88 <add_task>
c0009090:	e51b3010 	ldr	r3, [fp, #-16]
c0009094:	e1a00003 	mov	r0, r3
c0009098:	e24bd004 	sub	sp, fp, #4
c000909c:	e8bd4800 	pop	{fp, lr}
c00090a0:	e12fff1e 	bx	lr
c00090a4:	c000f2f0 	strdgt	pc, [r0], -r0
c00090a8:	20160201 	andscs	r0, r6, r1, lsl #4

c00090ac <sys_task_exit>:
c00090ac:	e92d4800 	push	{fp, lr}
c00090b0:	e28db004 	add	fp, sp, #4
c00090b4:	e24dd008 	sub	sp, sp, #8
c00090b8:	e50b0008 	str	r0, [fp, #-8]
c00090bc:	e59f3064 	ldr	r3, [pc, #100]	; c0009128 <sys_task_exit+0x7c>
c00090c0:	e5933000 	ldr	r3, [r3]
c00090c4:	e2833014 	add	r3, r3, #20
c00090c8:	e1a00003 	mov	r0, r3
c00090cc:	e3e01000 	mvn	r1, #0
c00090d0:	ebffff10 	bl	c0008d18 <wake_up>
c00090d4:	e59f304c 	ldr	r3, [pc, #76]	; c0009128 <sys_task_exit+0x7c>
c00090d8:	e5933000 	ldr	r3, [r3]
c00090dc:	e51b2008 	ldr	r2, [fp, #-8]
c00090e0:	e5832010 	str	r2, [r3, #16]
c00090e4:	e59f303c 	ldr	r3, [pc, #60]	; c0009128 <sys_task_exit+0x7c>
c00090e8:	e5933000 	ldr	r3, [r3]
c00090ec:	e3a02002 	mov	r2, #2
c00090f0:	e5832008 	str	r2, [r3, #8]
c00090f4:	e59f3030 	ldr	r3, [pc, #48]	; c000912c <sys_task_exit+0x80>
c00090f8:	e5932000 	ldr	r2, [r3]
c00090fc:	e59f3024 	ldr	r3, [pc, #36]	; c0009128 <sys_task_exit+0x7c>
c0009100:	e5933000 	ldr	r3, [r3]
c0009104:	e1520003 	cmp	r2, r3
c0009108:	1a000002 	bne	c0009118 <sys_task_exit+0x6c>
c000910c:	e59f3018 	ldr	r3, [pc, #24]	; c000912c <sys_task_exit+0x80>
c0009110:	e3a02000 	mov	r2, #0
c0009114:	e5832000 	str	r2, [r3]
c0009118:	ebfffe95 	bl	c0008b74 <schedule>
c000911c:	e24bd004 	sub	sp, fp, #4
c0009120:	e8bd4800 	pop	{fp, lr}
c0009124:	e12fff1e 	bx	lr
c0009128:	c000f38c 	andgt	pc, r0, ip, lsl #7
c000912c:	c000f390 	mulgt	r0, r0, r3

c0009130 <sys_task_wait>:
c0009130:	e92d4800 	push	{fp, lr}
c0009134:	e28db004 	add	fp, sp, #4
c0009138:	e24dd010 	sub	sp, sp, #16
c000913c:	e50b0010 	str	r0, [fp, #-16]
c0009140:	e50b1014 	str	r1, [fp, #-20]
c0009144:	e59f30a8 	ldr	r3, [pc, #168]	; c00091f4 <sys_task_wait+0xc4>
c0009148:	e5933000 	ldr	r3, [r3]
c000914c:	e3530000 	cmp	r3, #0
c0009150:	1a000001 	bne	c000915c <sys_task_wait+0x2c>
c0009154:	e3e03000 	mvn	r3, #0
c0009158:	ea000021 	b	c00091e4 <sys_task_wait+0xb4>
c000915c:	e51b0010 	ldr	r0, [fp, #-16]
c0009160:	ebffff55 	bl	c0008ebc <get_task>
c0009164:	e50b0008 	str	r0, [fp, #-8]
c0009168:	e51b3008 	ldr	r3, [fp, #-8]
c000916c:	e3530000 	cmp	r3, #0
c0009170:	1a000001 	bne	c000917c <sys_task_wait+0x4c>
c0009174:	e3e03000 	mvn	r3, #0
c0009178:	ea000019 	b	c00091e4 <sys_task_wait+0xb4>
c000917c:	e51b3008 	ldr	r3, [fp, #-8]
c0009180:	e5933008 	ldr	r3, [r3, #8]
c0009184:	e3530002 	cmp	r3, #2
c0009188:	0a000003 	beq	c000919c <sys_task_wait+0x6c>
c000918c:	e51b3008 	ldr	r3, [fp, #-8]
c0009190:	e2833014 	add	r3, r3, #20
c0009194:	e1a00003 	mov	r0, r3
c0009198:	ebfffeab 	bl	c0008c4c <sleep_on>
c000919c:	e51b3014 	ldr	r3, [fp, #-20]
c00091a0:	e3530000 	cmp	r3, #0
c00091a4:	0a000003 	beq	c00091b8 <sys_task_wait+0x88>
c00091a8:	e51b3008 	ldr	r3, [fp, #-8]
c00091ac:	e5932010 	ldr	r2, [r3, #16]
c00091b0:	e51b3014 	ldr	r3, [fp, #-20]
c00091b4:	e5832000 	str	r2, [r3]
c00091b8:	e51b3008 	ldr	r3, [fp, #-8]
c00091bc:	e5933014 	ldr	r3, [r3, #20]
c00091c0:	e3530000 	cmp	r3, #0
c00091c4:	1a000005 	bne	c00091e0 <sys_task_wait+0xb0>
c00091c8:	e51b0008 	ldr	r0, [fp, #-8]
c00091cc:	ebffff0b 	bl	c0008e00 <remove_task>
c00091d0:	e51b0008 	ldr	r0, [fp, #-8]
c00091d4:	eb000484 	bl	c000a3ec <kfree>
c00091d8:	e3a03000 	mov	r3, #0
c00091dc:	ea000000 	b	c00091e4 <sys_task_wait+0xb4>
c00091e0:	e3a03000 	mov	r3, #0
c00091e4:	e1a00003 	mov	r0, r3
c00091e8:	e24bd004 	sub	sp, fp, #4
c00091ec:	e8bd4800 	pop	{fp, lr}
c00091f0:	e12fff1e 	bx	lr
c00091f4:	c000f38c 	andgt	pc, r0, ip, lsl #7

c00091f8 <sys_task_getid>:
c00091f8:	e52db004 	push	{fp}		; (str fp, [sp, #-4]!)
c00091fc:	e28db000 	add	fp, sp, #0
c0009200:	e59f302c 	ldr	r3, [pc, #44]	; c0009234 <sys_task_getid+0x3c>
c0009204:	e5933000 	ldr	r3, [r3]
c0009208:	e3530000 	cmp	r3, #0
c000920c:	0a000003 	beq	c0009220 <sys_task_getid+0x28>
c0009210:	e59f301c 	ldr	r3, [pc, #28]	; c0009234 <sys_task_getid+0x3c>
c0009214:	e5933000 	ldr	r3, [r3]
c0009218:	e5933004 	ldr	r3, [r3, #4]
c000921c:	ea000000 	b	c0009224 <sys_task_getid+0x2c>
c0009220:	e3e03000 	mvn	r3, #0
c0009224:	e1a00003 	mov	r0, r3
c0009228:	e24bd000 	sub	sp, fp, #0
c000922c:	e49db004 	pop	{fp}		; (ldr fp, [sp], #4)
c0009230:	e12fff1e 	bx	lr
c0009234:	c000f38c 	andgt	pc, r0, ip, lsl #7

c0009238 <sys_task_yield>:
c0009238:	e92d4800 	push	{fp, lr}
c000923c:	e28db004 	add	fp, sp, #4
c0009240:	ebfffe4b 	bl	c0008b74 <schedule>
c0009244:	e24bd004 	sub	sp, fp, #4
c0009248:	e8bd4800 	pop	{fp, lr}
c000924c:	e12fff1e 	bx	lr

c0009250 <init_task>:
c0009250:	e92d4800 	push	{fp, lr}
c0009254:	e28db004 	add	fp, sp, #4
c0009258:	e59f3050 	ldr	r3, [pc, #80]	; c00092b0 <init_task+0x60>
c000925c:	e3a02000 	mov	r2, #0
c0009260:	e5832000 	str	r2, [r3]
c0009264:	e59f3048 	ldr	r3, [pc, #72]	; c00092b4 <init_task+0x64>
c0009268:	e3a02000 	mov	r2, #0
c000926c:	e5832000 	str	r2, [r3]
c0009270:	e59f3040 	ldr	r3, [pc, #64]	; c00092b8 <init_task+0x68>
c0009274:	e3a02000 	mov	r2, #0
c0009278:	e5832000 	str	r2, [r3]
c000927c:	e59f3038 	ldr	r3, [pc, #56]	; c00092bc <init_task+0x6c>
c0009280:	e3a02000 	mov	r2, #0
c0009284:	e5832000 	str	r2, [r3]
c0009288:	e3a00000 	mov	r0, #0
c000928c:	e3a01000 	mov	r1, #0
c0009290:	e3a02000 	mov	r2, #0
c0009294:	ebffff22 	bl	c0008f24 <sys_task_create>
c0009298:	e1a02000 	mov	r2, r0
c000929c:	e59f301c 	ldr	r3, [pc, #28]	; c00092c0 <init_task+0x70>
c00092a0:	e5832000 	str	r2, [r3]
c00092a4:	e24bd004 	sub	sp, fp, #4
c00092a8:	e8bd4800 	pop	{fp, lr}
c00092ac:	e12fff1e 	bx	lr
c00092b0:	c000f384 	andgt	pc, r0, r4, lsl #7
c00092b4:	c000f38c 	andgt	pc, r0, ip, lsl #7
c00092b8:	c000f388 	andgt	pc, r0, r8, lsl #7
c00092bc:	c000f390 	mulgt	r0, r0, r3
c00092c0:	c000f380 	andgt	pc, r0, r0, lsl #7

c00092c4 <init_vmspace>:
c00092c4:	e52db004 	push	{fp}		; (str fp, [sp, #-4]!)
c00092c8:	e28db000 	add	fp, sp, #0
c00092cc:	e24dd00c 	sub	sp, sp, #12
c00092d0:	e50b0008 	str	r0, [fp, #-8]
c00092d4:	e59f3058 	ldr	r3, [pc, #88]	; c0009334 <init_vmspace+0x70>
c00092d8:	e59f2058 	ldr	r2, [pc, #88]	; c0009338 <init_vmspace+0x74>
c00092dc:	e5832000 	str	r2, [r3]
c00092e0:	e59f304c 	ldr	r3, [pc, #76]	; c0009334 <init_vmspace+0x70>
c00092e4:	e5933000 	ldr	r3, [r3]
c00092e8:	e51b2008 	ldr	r2, [fp, #-8]
c00092ec:	e0632002 	rsb	r2, r3, r2
c00092f0:	e59f303c 	ldr	r3, [pc, #60]	; c0009334 <init_vmspace+0x70>
c00092f4:	e5832004 	str	r2, [r3, #4]
c00092f8:	e59f3034 	ldr	r3, [pc, #52]	; c0009334 <init_vmspace+0x70>
c00092fc:	e3a02007 	mov	r2, #7
c0009300:	e5832008 	str	r2, [r3, #8]
c0009304:	e59f3028 	ldr	r3, [pc, #40]	; c0009334 <init_vmspace+0x70>
c0009308:	e3a02000 	mov	r2, #0
c000930c:	e583200c 	str	r2, [r3, #12]
c0009310:	e59f3024 	ldr	r3, [pc, #36]	; c000933c <init_vmspace+0x78>
c0009314:	e59f2018 	ldr	r2, [pc, #24]	; c0009334 <init_vmspace+0x70>
c0009318:	e5832000 	str	r2, [r3]
c000931c:	e59f301c 	ldr	r3, [pc, #28]	; c0009340 <init_vmspace+0x7c>
c0009320:	e3a02000 	mov	r2, #0
c0009324:	e5832000 	str	r2, [r3]
c0009328:	e24bd000 	sub	sp, fp, #0
c000932c:	e49db004 	pop	{fp}		; (ldr fp, [sp], #4)
c0009330:	e12fff1e 	bx	lr
c0009334:	c000f2f4 	strdgt	pc, [r0], -r4
c0009338:	bff00000 	svclt	0x00f00000	; IMB
c000933c:	c000f304 	andgt	pc, r0, r4, lsl #6
c0009340:	c000f308 	andgt	pc, r0, r8, lsl #6

c0009344 <page_alloc_in_addr>:
c0009344:	e92d4800 	push	{fp, lr}
c0009348:	e28db004 	add	fp, sp, #4
c000934c:	e24dd020 	sub	sp, sp, #32
c0009350:	e50b0018 	str	r0, [fp, #-24]
c0009354:	e50b101c 	str	r1, [fp, #-28]
c0009358:	e50b2020 	str	r2, [fp, #-32]
c000935c:	e51b301c 	ldr	r3, [fp, #-28]
c0009360:	e1a03603 	lsl	r3, r3, #12
c0009364:	e50b3010 	str	r3, [fp, #-16]
c0009368:	e51b301c 	ldr	r3, [fp, #-28]
c000936c:	e3530000 	cmp	r3, #0
c0009370:	ca000001 	bgt	c000937c <page_alloc_in_addr+0x38>
c0009374:	e3e03000 	mvn	r3, #0
c0009378:	ea00006d 	b	c0009534 <page_alloc_in_addr+0x1f0>
c000937c:	e51b3018 	ldr	r3, [fp, #-24]
c0009380:	e1a03a03 	lsl	r3, r3, #20
c0009384:	e1a03a23 	lsr	r3, r3, #20
c0009388:	e3530000 	cmp	r3, #0
c000938c:	0a000001 	beq	c0009398 <page_alloc_in_addr+0x54>
c0009390:	e3e03000 	mvn	r3, #0
c0009394:	ea000066 	b	c0009534 <page_alloc_in_addr+0x1f0>
c0009398:	e51b3018 	ldr	r3, [fp, #-24]
c000939c:	e3530601 	cmp	r3, #1048576	; 0x100000
c00093a0:	3a000007 	bcc	c00093c4 <page_alloc_in_addr+0x80>
c00093a4:	e51b3018 	ldr	r3, [fp, #-24]
c00093a8:	e3730a01 	cmn	r3, #4096	; 0x1000
c00093ac:	2a000004 	bcs	c00093c4 <page_alloc_in_addr+0x80>
c00093b0:	e51b2018 	ldr	r2, [fp, #-24]
c00093b4:	e51b3010 	ldr	r3, [fp, #-16]
c00093b8:	e0823003 	add	r3, r2, r3
c00093bc:	e3730a01 	cmn	r3, #4096	; 0x1000
c00093c0:	9a000001 	bls	c00093cc <page_alloc_in_addr+0x88>
c00093c4:	e3e03000 	mvn	r3, #0
c00093c8:	ea000059 	b	c0009534 <page_alloc_in_addr+0x1f0>
c00093cc:	e59f3170 	ldr	r3, [pc, #368]	; c0009544 <page_alloc_in_addr+0x200>
c00093d0:	e5933000 	ldr	r3, [r3]
c00093d4:	e50b3008 	str	r3, [fp, #-8]
c00093d8:	e3a03000 	mov	r3, #0
c00093dc:	e50b300c 	str	r3, [fp, #-12]
c00093e0:	e51b2018 	ldr	r2, [fp, #-24]
c00093e4:	e59f315c 	ldr	r3, [pc, #348]	; c0009548 <page_alloc_in_addr+0x204>
c00093e8:	e1520003 	cmp	r2, r3
c00093ec:	8a00000b 	bhi	c0009420 <page_alloc_in_addr+0xdc>
c00093f0:	e51b2018 	ldr	r2, [fp, #-24]
c00093f4:	e51b3010 	ldr	r3, [fp, #-16]
c00093f8:	e0822003 	add	r2, r2, r3
c00093fc:	e59f3148 	ldr	r3, [pc, #328]	; c000954c <page_alloc_in_addr+0x208>
c0009400:	e1520003 	cmp	r2, r3
c0009404:	9a000001 	bls	c0009410 <page_alloc_in_addr+0xcc>
c0009408:	e3e03000 	mvn	r3, #0
c000940c:	ea000048 	b	c0009534 <page_alloc_in_addr+0x1f0>
c0009410:	e59f3138 	ldr	r3, [pc, #312]	; c0009550 <page_alloc_in_addr+0x20c>
c0009414:	e5933000 	ldr	r3, [r3]
c0009418:	e50b3008 	str	r3, [fp, #-8]
c000941c:	ea000023 	b	c00094b0 <page_alloc_in_addr+0x16c>
c0009420:	ea000022 	b	c00094b0 <page_alloc_in_addr+0x16c>
c0009424:	e51b3008 	ldr	r3, [fp, #-8]
c0009428:	e5932000 	ldr	r2, [r3]
c000942c:	e51b3018 	ldr	r3, [fp, #-24]
c0009430:	e1520003 	cmp	r2, r3
c0009434:	8a000009 	bhi	c0009460 <page_alloc_in_addr+0x11c>
c0009438:	e51b3008 	ldr	r3, [fp, #-8]
c000943c:	e5932000 	ldr	r2, [r3]
c0009440:	e51b3008 	ldr	r3, [fp, #-8]
c0009444:	e5933004 	ldr	r3, [r3, #4]
c0009448:	e0822003 	add	r2, r2, r3
c000944c:	e51b3018 	ldr	r3, [fp, #-24]
c0009450:	e1520003 	cmp	r2, r3
c0009454:	9a000001 	bls	c0009460 <page_alloc_in_addr+0x11c>
c0009458:	e3e03000 	mvn	r3, #0
c000945c:	ea000034 	b	c0009534 <page_alloc_in_addr+0x1f0>
c0009460:	e51b3008 	ldr	r3, [fp, #-8]
c0009464:	e5932000 	ldr	r2, [r3]
c0009468:	e51b3018 	ldr	r3, [fp, #-24]
c000946c:	e1520003 	cmp	r2, r3
c0009470:	9a000009 	bls	c000949c <page_alloc_in_addr+0x158>
c0009474:	e51b2018 	ldr	r2, [fp, #-24]
c0009478:	e51b3010 	ldr	r3, [fp, #-16]
c000947c:	e0822003 	add	r2, r2, r3
c0009480:	e51b3008 	ldr	r3, [fp, #-8]
c0009484:	e5933000 	ldr	r3, [r3]
c0009488:	e1520003 	cmp	r2, r3
c000948c:	9a000001 	bls	c0009498 <page_alloc_in_addr+0x154>
c0009490:	e3e03000 	mvn	r3, #0
c0009494:	ea000026 	b	c0009534 <page_alloc_in_addr+0x1f0>
c0009498:	ea000007 	b	c00094bc <page_alloc_in_addr+0x178>
c000949c:	e51b3008 	ldr	r3, [fp, #-8]
c00094a0:	e50b300c 	str	r3, [fp, #-12]
c00094a4:	e51b3008 	ldr	r3, [fp, #-8]
c00094a8:	e593300c 	ldr	r3, [r3, #12]
c00094ac:	e50b3008 	str	r3, [fp, #-8]
c00094b0:	e51b3008 	ldr	r3, [fp, #-8]
c00094b4:	e3530000 	cmp	r3, #0
c00094b8:	1affffd9 	bne	c0009424 <page_alloc_in_addr+0xe0>
c00094bc:	e3a00010 	mov	r0, #16
c00094c0:	eb0003af 	bl	c000a384 <kmalloc>
c00094c4:	e50b0014 	str	r0, [fp, #-20]
c00094c8:	e51b3014 	ldr	r3, [fp, #-20]
c00094cc:	e51b2018 	ldr	r2, [fp, #-24]
c00094d0:	e5832000 	str	r2, [r3]
c00094d4:	e51b3014 	ldr	r3, [fp, #-20]
c00094d8:	e51b2010 	ldr	r2, [fp, #-16]
c00094dc:	e5832004 	str	r2, [r3, #4]
c00094e0:	e51b3014 	ldr	r3, [fp, #-20]
c00094e4:	e51b2020 	ldr	r2, [fp, #-32]
c00094e8:	e5832008 	str	r2, [r3, #8]
c00094ec:	e51b300c 	ldr	r3, [fp, #-12]
c00094f0:	e3530000 	cmp	r3, #0
c00094f4:	1a000006 	bne	c0009514 <page_alloc_in_addr+0x1d0>
c00094f8:	e51b3014 	ldr	r3, [fp, #-20]
c00094fc:	e51b2008 	ldr	r2, [fp, #-8]
c0009500:	e583200c 	str	r2, [r3, #12]
c0009504:	e59f3044 	ldr	r3, [pc, #68]	; c0009550 <page_alloc_in_addr+0x20c>
c0009508:	e51b2014 	ldr	r2, [fp, #-20]
c000950c:	e5832000 	str	r2, [r3]
c0009510:	ea000006 	b	c0009530 <page_alloc_in_addr+0x1ec>
c0009514:	e51b300c 	ldr	r3, [fp, #-12]
c0009518:	e593200c 	ldr	r2, [r3, #12]
c000951c:	e51b3014 	ldr	r3, [fp, #-20]
c0009520:	e583200c 	str	r2, [r3, #12]
c0009524:	e51b300c 	ldr	r3, [fp, #-12]
c0009528:	e51b2014 	ldr	r2, [fp, #-20]
c000952c:	e583200c 	str	r2, [r3, #12]
c0009530:	e51b3018 	ldr	r3, [fp, #-24]
c0009534:	e1a00003 	mov	r0, r3
c0009538:	e24bd004 	sub	sp, fp, #4
c000953c:	e8bd4800 	pop	{fp, lr}
c0009540:	e12fff1e 	bx	lr
c0009544:	c000f304 	andgt	pc, r0, r4, lsl #6
c0009548:	bfefffff 	svclt	0x00efffff
c000954c:	bff00000 	svclt	0x00f00000	; IMB
c0009550:	c000f308 	andgt	pc, r0, r8, lsl #6

c0009554 <page_alloc>:
c0009554:	e92d4800 	push	{fp, lr}
c0009558:	e28db004 	add	fp, sp, #4
c000955c:	e24dd028 	sub	sp, sp, #40	; 0x28
c0009560:	e50b0020 	str	r0, [fp, #-32]
c0009564:	e50b1024 	str	r1, [fp, #-36]	; 0x24
c0009568:	e50b2028 	str	r2, [fp, #-40]	; 0x28
c000956c:	e51b3020 	ldr	r3, [fp, #-32]
c0009570:	e1a03603 	lsl	r3, r3, #12
c0009574:	e50b3014 	str	r3, [fp, #-20]
c0009578:	e51b3020 	ldr	r3, [fp, #-32]
c000957c:	e3530000 	cmp	r3, #0
c0009580:	ca000001 	bgt	c000958c <page_alloc+0x38>
c0009584:	e3e03000 	mvn	r3, #0
c0009588:	ea000069 	b	c0009734 <page_alloc+0x1e0>
c000958c:	e59f31b0 	ldr	r3, [pc, #432]	; c0009744 <page_alloc+0x1f0>
c0009590:	e5933000 	ldr	r3, [r3]
c0009594:	e50b3008 	str	r3, [fp, #-8]
c0009598:	e3a03000 	mov	r3, #0
c000959c:	e50b300c 	str	r3, [fp, #-12]
c00095a0:	e51b3028 	ldr	r3, [fp, #-40]	; 0x28
c00095a4:	e3530000 	cmp	r3, #0
c00095a8:	0a000002 	beq	c00095b8 <page_alloc+0x64>
c00095ac:	e59f3194 	ldr	r3, [pc, #404]	; c0009748 <page_alloc+0x1f4>
c00095b0:	e5933000 	ldr	r3, [r3]
c00095b4:	e50b3008 	str	r3, [fp, #-8]
c00095b8:	e51b3008 	ldr	r3, [fp, #-8]
c00095bc:	e3530000 	cmp	r3, #0
c00095c0:	1a000002 	bne	c00095d0 <page_alloc+0x7c>
c00095c4:	e3a03601 	mov	r3, #1048576	; 0x100000
c00095c8:	e50b3010 	str	r3, [fp, #-16]
c00095cc:	ea00001e 	b	c000964c <page_alloc+0xf8>
c00095d0:	e51b3008 	ldr	r3, [fp, #-8]
c00095d4:	e5932000 	ldr	r2, [r3]
c00095d8:	e51b3008 	ldr	r3, [fp, #-8]
c00095dc:	e5933004 	ldr	r3, [r3, #4]
c00095e0:	e0823003 	add	r3, r2, r3
c00095e4:	e50b3010 	str	r3, [fp, #-16]
c00095e8:	e51b3008 	ldr	r3, [fp, #-8]
c00095ec:	e50b300c 	str	r3, [fp, #-12]
c00095f0:	e51b3008 	ldr	r3, [fp, #-8]
c00095f4:	e593300c 	ldr	r3, [r3, #12]
c00095f8:	e50b3008 	str	r3, [fp, #-8]
c00095fc:	ea000012 	b	c000964c <page_alloc+0xf8>
c0009600:	e51b2010 	ldr	r2, [fp, #-16]
c0009604:	e51b3014 	ldr	r3, [fp, #-20]
c0009608:	e0822003 	add	r2, r2, r3
c000960c:	e51b3008 	ldr	r3, [fp, #-8]
c0009610:	e5933000 	ldr	r3, [r3]
c0009614:	e1520003 	cmp	r2, r3
c0009618:	8a000000 	bhi	c0009620 <page_alloc+0xcc>
c000961c:	ea00000d 	b	c0009658 <page_alloc+0x104>
c0009620:	e51b3008 	ldr	r3, [fp, #-8]
c0009624:	e5932000 	ldr	r2, [r3]
c0009628:	e51b3008 	ldr	r3, [fp, #-8]
c000962c:	e5933004 	ldr	r3, [r3, #4]
c0009630:	e0823003 	add	r3, r2, r3
c0009634:	e50b3010 	str	r3, [fp, #-16]
c0009638:	e51b3008 	ldr	r3, [fp, #-8]
c000963c:	e50b300c 	str	r3, [fp, #-12]
c0009640:	e51b3008 	ldr	r3, [fp, #-8]
c0009644:	e593300c 	ldr	r3, [r3, #12]
c0009648:	e50b3008 	str	r3, [fp, #-8]
c000964c:	e51b3008 	ldr	r3, [fp, #-8]
c0009650:	e3530000 	cmp	r3, #0
c0009654:	1affffe9 	bne	c0009600 <page_alloc+0xac>
c0009658:	e51b3028 	ldr	r3, [fp, #-40]	; 0x28
c000965c:	e3530000 	cmp	r3, #0
c0009660:	0a00000b 	beq	c0009694 <page_alloc+0x140>
c0009664:	e51b2010 	ldr	r2, [fp, #-16]
c0009668:	e59f30dc 	ldr	r3, [pc, #220]	; c000974c <page_alloc+0x1f8>
c000966c:	e1520003 	cmp	r2, r3
c0009670:	8a000005 	bhi	c000968c <page_alloc+0x138>
c0009674:	e51b2010 	ldr	r2, [fp, #-16]
c0009678:	e51b3014 	ldr	r3, [fp, #-20]
c000967c:	e0822003 	add	r2, r2, r3
c0009680:	e59f30c8 	ldr	r3, [pc, #200]	; c0009750 <page_alloc+0x1fc>
c0009684:	e1520003 	cmp	r2, r3
c0009688:	9a00000b 	bls	c00096bc <page_alloc+0x168>
c000968c:	e3e03000 	mvn	r3, #0
c0009690:	ea000027 	b	c0009734 <page_alloc+0x1e0>
c0009694:	e51b3010 	ldr	r3, [fp, #-16]
c0009698:	e3730a01 	cmn	r3, #4096	; 0x1000
c000969c:	2a000004 	bcs	c00096b4 <page_alloc+0x160>
c00096a0:	e51b2010 	ldr	r2, [fp, #-16]
c00096a4:	e51b3014 	ldr	r3, [fp, #-20]
c00096a8:	e0823003 	add	r3, r2, r3
c00096ac:	e3730a01 	cmn	r3, #4096	; 0x1000
c00096b0:	9a000001 	bls	c00096bc <page_alloc+0x168>
c00096b4:	e3e03000 	mvn	r3, #0
c00096b8:	ea00001d 	b	c0009734 <page_alloc+0x1e0>
c00096bc:	e3a00010 	mov	r0, #16
c00096c0:	eb00032f 	bl	c000a384 <kmalloc>
c00096c4:	e50b0018 	str	r0, [fp, #-24]
c00096c8:	e51b3018 	ldr	r3, [fp, #-24]
c00096cc:	e51b2010 	ldr	r2, [fp, #-16]
c00096d0:	e5832000 	str	r2, [r3]
c00096d4:	e51b3018 	ldr	r3, [fp, #-24]
c00096d8:	e51b2014 	ldr	r2, [fp, #-20]
c00096dc:	e5832004 	str	r2, [r3, #4]
c00096e0:	e51b3018 	ldr	r3, [fp, #-24]
c00096e4:	e51b2024 	ldr	r2, [fp, #-36]	; 0x24
c00096e8:	e5832008 	str	r2, [r3, #8]
c00096ec:	e51b300c 	ldr	r3, [fp, #-12]
c00096f0:	e3530000 	cmp	r3, #0
c00096f4:	1a000006 	bne	c0009714 <page_alloc+0x1c0>
c00096f8:	e51b3018 	ldr	r3, [fp, #-24]
c00096fc:	e51b2008 	ldr	r2, [fp, #-8]
c0009700:	e583200c 	str	r2, [r3, #12]
c0009704:	e59f303c 	ldr	r3, [pc, #60]	; c0009748 <page_alloc+0x1f4>
c0009708:	e51b2018 	ldr	r2, [fp, #-24]
c000970c:	e5832000 	str	r2, [r3]
c0009710:	ea000006 	b	c0009730 <page_alloc+0x1dc>
c0009714:	e51b300c 	ldr	r3, [fp, #-12]
c0009718:	e593200c 	ldr	r2, [r3, #12]
c000971c:	e51b3018 	ldr	r3, [fp, #-24]
c0009720:	e583200c 	str	r2, [r3, #12]
c0009724:	e51b300c 	ldr	r3, [fp, #-12]
c0009728:	e51b2018 	ldr	r2, [fp, #-24]
c000972c:	e583200c 	str	r2, [r3, #12]
c0009730:	e51b3010 	ldr	r3, [fp, #-16]
c0009734:	e1a00003 	mov	r0, r3
c0009738:	e24bd004 	sub	sp, fp, #4
c000973c:	e8bd4800 	pop	{fp, lr}
c0009740:	e12fff1e 	bx	lr
c0009744:	c000f304 	andgt	pc, r0, r4, lsl #6
c0009748:	c000f308 	andgt	pc, r0, r8, lsl #6
c000974c:	bfefffff 	svclt	0x00efffff
c0009750:	bff00000 	svclt	0x00f00000	; IMB

c0009754 <page_free>:
c0009754:	e92d4800 	push	{fp, lr}
c0009758:	e28db004 	add	fp, sp, #4
c000975c:	e24dd018 	sub	sp, sp, #24
c0009760:	e50b0018 	str	r0, [fp, #-24]
c0009764:	e50b101c 	str	r1, [fp, #-28]
c0009768:	e51b301c 	ldr	r3, [fp, #-28]
c000976c:	e1a03603 	lsl	r3, r3, #12
c0009770:	e50b3010 	str	r3, [fp, #-16]
c0009774:	e51b301c 	ldr	r3, [fp, #-28]
c0009778:	e3530000 	cmp	r3, #0
c000977c:	ca000001 	bgt	c0009788 <page_free+0x34>
c0009780:	e3e03000 	mvn	r3, #0
c0009784:	ea000036 	b	c0009864 <page_free+0x110>
c0009788:	e51b2018 	ldr	r2, [fp, #-24]
c000978c:	e59f30e0 	ldr	r3, [pc, #224]	; c0009874 <page_free+0x120>
c0009790:	e1520003 	cmp	r2, r3
c0009794:	1a000001 	bne	c00097a0 <page_free+0x4c>
c0009798:	e3e03000 	mvn	r3, #0
c000979c:	ea000030 	b	c0009864 <page_free+0x110>
c00097a0:	e59f30d0 	ldr	r3, [pc, #208]	; c0009878 <page_free+0x124>
c00097a4:	e5933000 	ldr	r3, [r3]
c00097a8:	e50b3008 	str	r3, [fp, #-8]
c00097ac:	e3a03000 	mov	r3, #0
c00097b0:	e50b300c 	str	r3, [fp, #-12]
c00097b4:	e51b2018 	ldr	r2, [fp, #-24]
c00097b8:	e59f30bc 	ldr	r3, [pc, #188]	; c000987c <page_free+0x128>
c00097bc:	e1520003 	cmp	r2, r3
c00097c0:	8a000003 	bhi	c00097d4 <page_free+0x80>
c00097c4:	e59f30b4 	ldr	r3, [pc, #180]	; c0009880 <page_free+0x12c>
c00097c8:	e5933000 	ldr	r3, [r3]
c00097cc:	e50b3008 	str	r3, [fp, #-8]
c00097d0:	ea00001f 	b	c0009854 <page_free+0x100>
c00097d4:	ea00001e 	b	c0009854 <page_free+0x100>
c00097d8:	e51b3008 	ldr	r3, [fp, #-8]
c00097dc:	e5932000 	ldr	r2, [r3]
c00097e0:	e51b3018 	ldr	r3, [fp, #-24]
c00097e4:	e1520003 	cmp	r2, r3
c00097e8:	1a000014 	bne	c0009840 <page_free+0xec>
c00097ec:	e51b3008 	ldr	r3, [fp, #-8]
c00097f0:	e5932004 	ldr	r2, [r3, #4]
c00097f4:	e51b3010 	ldr	r3, [fp, #-16]
c00097f8:	e1520003 	cmp	r2, r3
c00097fc:	1a00000f 	bne	c0009840 <page_free+0xec>
c0009800:	e51b300c 	ldr	r3, [fp, #-12]
c0009804:	e3530000 	cmp	r3, #0
c0009808:	1a000004 	bne	c0009820 <page_free+0xcc>
c000980c:	e51b3008 	ldr	r3, [fp, #-8]
c0009810:	e593200c 	ldr	r2, [r3, #12]
c0009814:	e59f3064 	ldr	r3, [pc, #100]	; c0009880 <page_free+0x12c>
c0009818:	e5832000 	str	r2, [r3]
c000981c:	ea000003 	b	c0009830 <page_free+0xdc>
c0009820:	e51b3008 	ldr	r3, [fp, #-8]
c0009824:	e593200c 	ldr	r2, [r3, #12]
c0009828:	e51b300c 	ldr	r3, [fp, #-12]
c000982c:	e583200c 	str	r2, [r3, #12]
c0009830:	e51b0008 	ldr	r0, [fp, #-8]
c0009834:	eb0002ec 	bl	c000a3ec <kfree>
c0009838:	e3a03000 	mov	r3, #0
c000983c:	ea000008 	b	c0009864 <page_free+0x110>
c0009840:	e51b3008 	ldr	r3, [fp, #-8]
c0009844:	e50b300c 	str	r3, [fp, #-12]
c0009848:	e51b3008 	ldr	r3, [fp, #-8]
c000984c:	e593300c 	ldr	r3, [r3, #12]
c0009850:	e50b3008 	str	r3, [fp, #-8]
c0009854:	e51b3008 	ldr	r3, [fp, #-8]
c0009858:	e3530000 	cmp	r3, #0
c000985c:	1affffdd 	bne	c00097d8 <page_free+0x84>
c0009860:	e3e03000 	mvn	r3, #0
c0009864:	e1a00003 	mov	r0, r3
c0009868:	e24bd004 	sub	sp, fp, #4
c000986c:	e8bd4800 	pop	{fp, lr}
c0009870:	e12fff1e 	bx	lr
c0009874:	bff00000 	svclt	0x00f00000	; IMB
c0009878:	c000f304 	andgt	pc, r0, r4, lsl #6
c000987c:	bfefffff 	svclt	0x00efffff
c0009880:	c000f308 	andgt	pc, r0, r8, lsl #6

c0009884 <page_prot>:
c0009884:	e52db004 	push	{fp}		; (str fp, [sp, #-4]!)
c0009888:	e28db000 	add	fp, sp, #0
c000988c:	e24dd014 	sub	sp, sp, #20
c0009890:	e50b0010 	str	r0, [fp, #-16]
c0009894:	e59f3094 	ldr	r3, [pc, #148]	; c0009930 <page_prot+0xac>
c0009898:	e5933000 	ldr	r3, [r3]
c000989c:	e50b3008 	str	r3, [fp, #-8]
c00098a0:	e51b2010 	ldr	r2, [fp, #-16]
c00098a4:	e59f3088 	ldr	r3, [pc, #136]	; c0009934 <page_prot+0xb0>
c00098a8:	e1520003 	cmp	r2, r3
c00098ac:	8a000003 	bhi	c00098c0 <page_prot+0x3c>
c00098b0:	e59f3080 	ldr	r3, [pc, #128]	; c0009938 <page_prot+0xb4>
c00098b4:	e5933000 	ldr	r3, [r3]
c00098b8:	e50b3008 	str	r3, [fp, #-8]
c00098bc:	ea000013 	b	c0009910 <page_prot+0x8c>
c00098c0:	ea000012 	b	c0009910 <page_prot+0x8c>
c00098c4:	e51b3008 	ldr	r3, [fp, #-8]
c00098c8:	e5932000 	ldr	r2, [r3]
c00098cc:	e51b3010 	ldr	r3, [fp, #-16]
c00098d0:	e1520003 	cmp	r2, r3
c00098d4:	8a00000a 	bhi	c0009904 <page_prot+0x80>
c00098d8:	e51b3008 	ldr	r3, [fp, #-8]
c00098dc:	e5932000 	ldr	r2, [r3]
c00098e0:	e51b3008 	ldr	r3, [fp, #-8]
c00098e4:	e5933004 	ldr	r3, [r3, #4]
c00098e8:	e0822003 	add	r2, r2, r3
c00098ec:	e51b3010 	ldr	r3, [fp, #-16]
c00098f0:	e1520003 	cmp	r2, r3
c00098f4:	9a000002 	bls	c0009904 <page_prot+0x80>
c00098f8:	e51b3008 	ldr	r3, [fp, #-8]
c00098fc:	e5933008 	ldr	r3, [r3, #8]
c0009900:	ea000006 	b	c0009920 <page_prot+0x9c>
c0009904:	e51b3008 	ldr	r3, [fp, #-8]
c0009908:	e593300c 	ldr	r3, [r3, #12]
c000990c:	e50b3008 	str	r3, [fp, #-8]
c0009910:	e51b3008 	ldr	r3, [fp, #-8]
c0009914:	e3530000 	cmp	r3, #0
c0009918:	1affffe9 	bne	c00098c4 <page_prot+0x40>
c000991c:	e3e03000 	mvn	r3, #0
c0009920:	e1a00003 	mov	r0, r3
c0009924:	e24bd000 	sub	sp, fp, #0
c0009928:	e49db004 	pop	{fp}		; (ldr fp, [sp], #4)
c000992c:	e12fff1e 	bx	lr
c0009930:	c000f304 	andgt	pc, r0, r4, lsl #6
c0009934:	bfefffff 	svclt	0x00efffff
c0009938:	c000f308 	andgt	pc, r0, r8, lsl #6

c000993c <page_map>:
c000993c:	e52db004 	push	{fp}		; (str fp, [sp, #-4]!)
c0009940:	e28db000 	add	fp, sp, #0
c0009944:	e24dd014 	sub	sp, sp, #20
c0009948:	e50b0008 	str	r0, [fp, #-8]
c000994c:	e50b100c 	str	r1, [fp, #-12]
c0009950:	e50b2010 	str	r2, [fp, #-16]
c0009954:	e50b3014 	str	r3, [fp, #-20]
c0009958:	ea000012 	b	c00099a8 <page_map+0x6c>
c000995c:	e59f305c 	ldr	r3, [pc, #92]	; c00099c0 <page_map+0x84>
c0009960:	e5932000 	ldr	r2, [r3]
c0009964:	e51b3008 	ldr	r3, [fp, #-8]
c0009968:	e1a03623 	lsr	r3, r3, #12
c000996c:	e1a03103 	lsl	r3, r3, #2
c0009970:	e0823003 	add	r3, r2, r3
c0009974:	e51b100c 	ldr	r1, [fp, #-12]
c0009978:	e51b2014 	ldr	r2, [fp, #-20]
c000997c:	e1812002 	orr	r2, r1, r2
c0009980:	e5832000 	str	r2, [r3]
c0009984:	e51b3008 	ldr	r3, [fp, #-8]
c0009988:	e2833a01 	add	r3, r3, #4096	; 0x1000
c000998c:	e50b3008 	str	r3, [fp, #-8]
c0009990:	e51b300c 	ldr	r3, [fp, #-12]
c0009994:	e2833a01 	add	r3, r3, #4096	; 0x1000
c0009998:	e50b300c 	str	r3, [fp, #-12]
c000999c:	e51b3010 	ldr	r3, [fp, #-16]
c00099a0:	e2433001 	sub	r3, r3, #1
c00099a4:	e50b3010 	str	r3, [fp, #-16]
c00099a8:	e51b3010 	ldr	r3, [fp, #-16]
c00099ac:	e3530000 	cmp	r3, #0
c00099b0:	1affffe9 	bne	c000995c <page_map+0x20>
c00099b4:	e24bd000 	sub	sp, fp, #0
c00099b8:	e49db004 	pop	{fp}		; (ldr fp, [sp], #4)
c00099bc:	e12fff1e 	bx	lr
c00099c0:	c000f310 	andgt	pc, r0, r0, lsl r3	; <UNPREDICTABLE>

c00099c4 <page_unmap>:
c00099c4:	e52db004 	push	{fp}		; (str fp, [sp, #-4]!)
c00099c8:	e28db000 	add	fp, sp, #0
c00099cc:	e24dd00c 	sub	sp, sp, #12
c00099d0:	e50b0008 	str	r0, [fp, #-8]
c00099d4:	e50b100c 	str	r1, [fp, #-12]
c00099d8:	ea00000d 	b	c0009a14 <page_unmap+0x50>
c00099dc:	e59f3048 	ldr	r3, [pc, #72]	; c0009a2c <page_unmap+0x68>
c00099e0:	e5932000 	ldr	r2, [r3]
c00099e4:	e51b3008 	ldr	r3, [fp, #-8]
c00099e8:	e1a03623 	lsr	r3, r3, #12
c00099ec:	e1a03103 	lsl	r3, r3, #2
c00099f0:	e0823003 	add	r3, r2, r3
c00099f4:	e3a02000 	mov	r2, #0
c00099f8:	e5832000 	str	r2, [r3]
c00099fc:	e51b3008 	ldr	r3, [fp, #-8]
c0009a00:	e2833a01 	add	r3, r3, #4096	; 0x1000
c0009a04:	e50b3008 	str	r3, [fp, #-8]
c0009a08:	e51b300c 	ldr	r3, [fp, #-12]
c0009a0c:	e2433001 	sub	r3, r3, #1
c0009a10:	e50b300c 	str	r3, [fp, #-12]
c0009a14:	e51b300c 	ldr	r3, [fp, #-12]
c0009a18:	e3530000 	cmp	r3, #0
c0009a1c:	1affffee 	bne	c00099dc <page_unmap+0x18>
c0009a20:	e24bd000 	sub	sp, fp, #0
c0009a24:	e49db004 	pop	{fp}		; (ldr fp, [sp], #4)
c0009a28:	e12fff1e 	bx	lr
c0009a2c:	c000f310 	andgt	pc, r0, r0, lsl r3	; <UNPREDICTABLE>

c0009a30 <do_page_fault>:
c0009a30:	e92d4800 	push	{fp, lr}
c0009a34:	e28db004 	add	fp, sp, #4
c0009a38:	e24dd020 	sub	sp, sp, #32
c0009a3c:	e50b0018 	str	r0, [fp, #-24]
c0009a40:	e50b101c 	str	r1, [fp, #-28]
c0009a44:	e50b2020 	str	r2, [fp, #-32]
c0009a48:	e51b001c 	ldr	r0, [fp, #-28]
c0009a4c:	ebffff8c 	bl	c0009884 <page_prot>
c0009a50:	e50b000c 	str	r0, [fp, #-12]
c0009a54:	e51b300c 	ldr	r3, [fp, #-12]
c0009a58:	e3730001 	cmn	r3, #1
c0009a5c:	0a000002 	beq	c0009a6c <do_page_fault+0x3c>
c0009a60:	e51b300c 	ldr	r3, [fp, #-12]
c0009a64:	e3530000 	cmp	r3, #0
c0009a68:	1a000007 	bne	c0009a8c <do_page_fault+0x5c>
c0009a6c:	e59f0118 	ldr	r0, [pc, #280]	; c0009b8c <do_page_fault+0x15c>
c0009a70:	e51b101c 	ldr	r1, [fp, #-28]
c0009a74:	e51b2020 	ldr	r2, [fp, #-32]
c0009a78:	eb00029e 	bl	c000a4f8 <printk>
c0009a7c:	e59f010c 	ldr	r0, [pc, #268]	; c0009b90 <do_page_fault+0x160>
c0009a80:	eb00029c 	bl	c000a4f8 <printk>
c0009a84:	e3e03000 	mvn	r3, #0
c0009a88:	ea00003b 	b	c0009b7c <do_page_fault+0x14c>
c0009a8c:	e51b301c 	ldr	r3, [fp, #-28]
c0009a90:	e3730105 	cmn	r3, #1073741825	; 0x40000001
c0009a94:	8a000002 	bhi	c0009aa4 <do_page_fault+0x74>
c0009a98:	e51b3020 	ldr	r3, [fp, #-32]
c0009a9c:	e3833004 	orr	r3, r3, #4
c0009aa0:	e50b3020 	str	r3, [fp, #-32]
c0009aa4:	e51b3020 	ldr	r3, [fp, #-32]
c0009aa8:	e2033001 	and	r3, r3, #1
c0009aac:	e3530000 	cmp	r3, #0
c0009ab0:	1a00002a 	bne	c0009b60 <do_page_fault+0x130>
c0009ab4:	e3a00001 	mov	r0, #1
c0009ab8:	eb000187 	bl	c000a0dc <frame_alloc>
c0009abc:	e50b0010 	str	r0, [fp, #-16]
c0009ac0:	e51b3010 	ldr	r3, [fp, #-16]
c0009ac4:	e3730001 	cmn	r3, #1
c0009ac8:	0a00001d 	beq	c0009b44 <do_page_fault+0x114>
c0009acc:	e51b3020 	ldr	r3, [fp, #-32]
c0009ad0:	e2033004 	and	r3, r3, #4
c0009ad4:	e3833001 	orr	r3, r3, #1
c0009ad8:	e50b3008 	str	r3, [fp, #-8]
c0009adc:	e51b300c 	ldr	r3, [fp, #-12]
c0009ae0:	e2033002 	and	r3, r3, #2
c0009ae4:	e3530000 	cmp	r3, #0
c0009ae8:	0a000002 	beq	c0009af8 <do_page_fault+0xc8>
c0009aec:	e51b3008 	ldr	r3, [fp, #-8]
c0009af0:	e3833002 	orr	r3, r3, #2
c0009af4:	e50b3008 	str	r3, [fp, #-8]
c0009af8:	e59f3094 	ldr	r3, [pc, #148]	; c0009b94 <do_page_fault+0x164>
c0009afc:	e5932000 	ldr	r2, [r3]
c0009b00:	e51b301c 	ldr	r3, [fp, #-28]
c0009b04:	e1a03623 	lsr	r3, r3, #12
c0009b08:	e1a03103 	lsl	r3, r3, #2
c0009b0c:	e0823003 	add	r3, r2, r3
c0009b10:	e51b1010 	ldr	r1, [fp, #-16]
c0009b14:	e51b2008 	ldr	r2, [fp, #-8]
c0009b18:	e1812002 	orr	r2, r1, r2
c0009b1c:	e5832000 	str	r2, [r3]
c0009b20:	e51b301c 	ldr	r3, [fp, #-28]
c0009b24:	e3c33eff 	bic	r3, r3, #4080	; 0xff0
c0009b28:	e3c3300f 	bic	r3, r3, #15
c0009b2c:	e1a00003 	mov	r0, r3
c0009b30:	e3a01000 	mov	r1, #0
c0009b34:	e3a02a01 	mov	r2, #4096	; 0x1000
c0009b38:	eb000c3a 	bl	c000cc28 <memset>
c0009b3c:	e3a03000 	mov	r3, #0
c0009b40:	ea00000d 	b	c0009b7c <do_page_fault+0x14c>
c0009b44:	e59f0040 	ldr	r0, [pc, #64]	; c0009b8c <do_page_fault+0x15c>
c0009b48:	e51b101c 	ldr	r1, [fp, #-28]
c0009b4c:	e51b2020 	ldr	r2, [fp, #-32]
c0009b50:	eb000268 	bl	c000a4f8 <printk>
c0009b54:	e59f003c 	ldr	r0, [pc, #60]	; c0009b98 <do_page_fault+0x168>
c0009b58:	eb000266 	bl	c000a4f8 <printk>
c0009b5c:	ea000005 	b	c0009b78 <do_page_fault+0x148>
c0009b60:	e59f0024 	ldr	r0, [pc, #36]	; c0009b8c <do_page_fault+0x15c>
c0009b64:	e51b101c 	ldr	r1, [fp, #-28]
c0009b68:	e51b2020 	ldr	r2, [fp, #-32]
c0009b6c:	eb000261 	bl	c000a4f8 <printk>
c0009b70:	e59f0024 	ldr	r0, [pc, #36]	; c0009b9c <do_page_fault+0x16c>
c0009b74:	eb00025f 	bl	c000a4f8 <printk>
c0009b78:	e3e03000 	mvn	r3, #0
c0009b7c:	e1a00003 	mov	r0, r3
c0009b80:	e24bd004 	sub	sp, fp, #4
c0009b84:	e8bd4800 	pop	{fp, lr}
c0009b88:	e12fff1e 	bx	lr
c0009b8c:	c000ec18 	andgt	lr, r0, r8, lsl ip
c0009b90:	c000ec2c 	andgt	lr, r0, ip, lsr #24
c0009b94:	c000f310 	andgt	pc, r0, r0, lsl r3	; <UNPREDICTABLE>
c0009b98:	c000ec48 	andgt	lr, r0, r8, asr #24
c0009b9c:	c000ec58 	andgt	lr, r0, r8, asr ip

c0009ba0 <isr_default>:
c0009ba0:	e52db004 	push	{fp}		; (str fp, [sp, #-4]!)
c0009ba4:	e28db000 	add	fp, sp, #0
c0009ba8:	e24dd00c 	sub	sp, sp, #12
c0009bac:	e50b0008 	str	r0, [fp, #-8]
c0009bb0:	e50b100c 	str	r1, [fp, #-12]
c0009bb4:	e24bd000 	sub	sp, fp, #0
c0009bb8:	e49db004 	pop	{fp}		; (ldr fp, [sp], #4)
c0009bbc:	e12fff1e 	bx	lr

c0009bc0 <mi_startup>:
c0009bc0:	e92d4800 	push	{fp, lr}
c0009bc4:	e28db004 	add	fp, sp, #4
c0009bc8:	e59f001c 	ldr	r0, [pc, #28]	; c0009bec <mi_startup+0x2c>
c0009bcc:	eb000249 	bl	c000a4f8 <printk>
c0009bd0:	e59f0018 	ldr	r0, [pc, #24]	; c0009bf0 <mi_startup+0x30>
c0009bd4:	eb000247 	bl	c000a4f8 <printk>
c0009bd8:	e59f0014 	ldr	r0, [pc, #20]	; c0009bf4 <mi_startup+0x34>
c0009bdc:	eb000245 	bl	c000a4f8 <printk>
c0009be0:	e24bd004 	sub	sp, fp, #4
c0009be4:	e8bd4800 	pop	{fp, lr}
c0009be8:	e12fff1e 	bx	lr
c0009bec:	c000ec74 	andgt	lr, r0, r4, ror ip
c0009bf0:	c000ec88 	andgt	lr, r0, r8, lsl #25
c0009bf4:	c000ecc8 	andgt	lr, r0, r8, asr #25

c0009bf8 <init_frame>:
c0009bf8:	e92d4800 	push	{fp, lr}
c0009bfc:	e28db004 	add	fp, sp, #4
c0009c00:	e24dd020 	sub	sp, sp, #32
c0009c04:	e50b0020 	str	r0, [fp, #-32]
c0009c08:	e3a03000 	mov	r3, #0
c0009c0c:	e50b300c 	str	r3, [fp, #-12]
c0009c10:	e3a03000 	mov	r3, #0
c0009c14:	e50b3008 	str	r3, [fp, #-8]
c0009c18:	ea0000c1 	b	c0009f24 <init_frame+0x32c>
c0009c1c:	e51b3008 	ldr	r3, [fp, #-8]
c0009c20:	e2832001 	add	r2, r3, #1
c0009c24:	e59f3318 	ldr	r3, [pc, #792]	; c0009f44 <init_frame+0x34c>
c0009c28:	e7932102 	ldr	r2, [r3, r2, lsl #2]
c0009c2c:	e59f3310 	ldr	r3, [pc, #784]	; c0009f44 <init_frame+0x34c>
c0009c30:	e51b1008 	ldr	r1, [fp, #-8]
c0009c34:	e7933101 	ldr	r3, [r3, r1, lsl #2]
c0009c38:	e1520003 	cmp	r2, r3
c0009c3c:	1a000000 	bne	c0009c44 <init_frame+0x4c>
c0009c40:	ea0000ba 	b	c0009f30 <init_frame+0x338>
c0009c44:	e59f32f8 	ldr	r3, [pc, #760]	; c0009f44 <init_frame+0x34c>
c0009c48:	e51b2008 	ldr	r2, [fp, #-8]
c0009c4c:	e7931102 	ldr	r1, [r3, r2, lsl #2]
c0009c50:	e59f02f0 	ldr	r0, [pc, #752]	; c0009f48 <init_frame+0x350>
c0009c54:	e51b200c 	ldr	r2, [fp, #-12]
c0009c58:	e1a03002 	mov	r3, r2
c0009c5c:	e1a03083 	lsl	r3, r3, #1
c0009c60:	e0833002 	add	r3, r3, r2
c0009c64:	e1a03103 	lsl	r3, r3, #2
c0009c68:	e0803003 	add	r3, r0, r3
c0009c6c:	e5831000 	str	r1, [r3]
c0009c70:	e51b3008 	ldr	r3, [fp, #-8]
c0009c74:	e2832001 	add	r2, r3, #1
c0009c78:	e59f32c4 	ldr	r3, [pc, #708]	; c0009f44 <init_frame+0x34c>
c0009c7c:	e7932102 	ldr	r2, [r3, r2, lsl #2]
c0009c80:	e59f32bc 	ldr	r3, [pc, #700]	; c0009f44 <init_frame+0x34c>
c0009c84:	e51b1008 	ldr	r1, [fp, #-8]
c0009c88:	e7933101 	ldr	r3, [r3, r1, lsl #2]
c0009c8c:	e0631002 	rsb	r1, r3, r2
c0009c90:	e59fc2b0 	ldr	ip, [pc, #688]	; c0009f48 <init_frame+0x350>
c0009c94:	e51b200c 	ldr	r2, [fp, #-12]
c0009c98:	e3a00004 	mov	r0, #4
c0009c9c:	e1a03002 	mov	r3, r2
c0009ca0:	e1a03083 	lsl	r3, r3, #1
c0009ca4:	e0833002 	add	r3, r3, r2
c0009ca8:	e1a03103 	lsl	r3, r3, #2
c0009cac:	e08c3003 	add	r3, ip, r3
c0009cb0:	e0833000 	add	r3, r3, r0
c0009cb4:	e5831000 	str	r1, [r3]
c0009cb8:	e59f0288 	ldr	r0, [pc, #648]	; c0009f48 <init_frame+0x350>
c0009cbc:	e51b200c 	ldr	r2, [fp, #-12]
c0009cc0:	e3a01004 	mov	r1, #4
c0009cc4:	e1a03002 	mov	r3, r2
c0009cc8:	e1a03083 	lsl	r3, r3, #1
c0009ccc:	e0833002 	add	r3, r3, r2
c0009cd0:	e1a03103 	lsl	r3, r3, #2
c0009cd4:	e0803003 	add	r3, r0, r3
c0009cd8:	e0833001 	add	r3, r3, r1
c0009cdc:	e5933000 	ldr	r3, [r3]
c0009ce0:	e1a03623 	lsr	r3, r3, #12
c0009ce4:	e50b3010 	str	r3, [fp, #-16]
c0009ce8:	e51b0010 	ldr	r0, [fp, #-16]
c0009cec:	eb000263 	bl	c000a680 <bitmap_buf_size>
c0009cf0:	e1a03000 	mov	r3, r0
c0009cf4:	e2833901 	add	r3, r3, #16384	; 0x4000
c0009cf8:	e3c33dff 	bic	r3, r3, #16320	; 0x3fc0
c0009cfc:	e3c3303f 	bic	r3, r3, #63	; 0x3f
c0009d00:	e50b3014 	str	r3, [fp, #-20]
c0009d04:	e59f123c 	ldr	r1, [pc, #572]	; c0009f48 <init_frame+0x350>
c0009d08:	e51b200c 	ldr	r2, [fp, #-12]
c0009d0c:	e1a03002 	mov	r3, r2
c0009d10:	e1a03083 	lsl	r3, r3, #1
c0009d14:	e0833002 	add	r3, r3, r2
c0009d18:	e1a03103 	lsl	r3, r3, #2
c0009d1c:	e0813003 	add	r3, r1, r3
c0009d20:	e5933000 	ldr	r3, [r3]
c0009d24:	e50b3018 	str	r3, [fp, #-24]
c0009d28:	e59f1218 	ldr	r1, [pc, #536]	; c0009f48 <init_frame+0x350>
c0009d2c:	e51b200c 	ldr	r2, [fp, #-12]
c0009d30:	e1a03002 	mov	r3, r2
c0009d34:	e1a03083 	lsl	r3, r3, #1
c0009d38:	e0833002 	add	r3, r3, r2
c0009d3c:	e1a03103 	lsl	r3, r3, #2
c0009d40:	e0813003 	add	r3, r1, r3
c0009d44:	e5932000 	ldr	r2, [r3]
c0009d48:	e51b3014 	ldr	r3, [fp, #-20]
c0009d4c:	e0821003 	add	r1, r2, r3
c0009d50:	e59f01f0 	ldr	r0, [pc, #496]	; c0009f48 <init_frame+0x350>
c0009d54:	e51b200c 	ldr	r2, [fp, #-12]
c0009d58:	e1a03002 	mov	r3, r2
c0009d5c:	e1a03083 	lsl	r3, r3, #1
c0009d60:	e0833002 	add	r3, r3, r2
c0009d64:	e1a03103 	lsl	r3, r3, #2
c0009d68:	e0803003 	add	r3, r0, r3
c0009d6c:	e5831000 	str	r1, [r3]
c0009d70:	e59f01d0 	ldr	r0, [pc, #464]	; c0009f48 <init_frame+0x350>
c0009d74:	e51b200c 	ldr	r2, [fp, #-12]
c0009d78:	e3a01004 	mov	r1, #4
c0009d7c:	e1a03002 	mov	r3, r2
c0009d80:	e1a03083 	lsl	r3, r3, #1
c0009d84:	e0833002 	add	r3, r3, r2
c0009d88:	e1a03103 	lsl	r3, r3, #2
c0009d8c:	e0803003 	add	r3, r0, r3
c0009d90:	e0833001 	add	r3, r3, r1
c0009d94:	e5932000 	ldr	r2, [r3]
c0009d98:	e51b3014 	ldr	r3, [fp, #-20]
c0009d9c:	e0631002 	rsb	r1, r3, r2
c0009da0:	e59fc1a0 	ldr	ip, [pc, #416]	; c0009f48 <init_frame+0x350>
c0009da4:	e51b200c 	ldr	r2, [fp, #-12]
c0009da8:	e3a00004 	mov	r0, #4
c0009dac:	e1a03002 	mov	r3, r2
c0009db0:	e1a03083 	lsl	r3, r3, #1
c0009db4:	e0833002 	add	r3, r3, r2
c0009db8:	e1a03103 	lsl	r3, r3, #2
c0009dbc:	e08c3003 	add	r3, ip, r3
c0009dc0:	e0833000 	add	r3, r3, r0
c0009dc4:	e5831000 	str	r1, [r3]
c0009dc8:	e59f0178 	ldr	r0, [pc, #376]	; c0009f48 <init_frame+0x350>
c0009dcc:	e51b200c 	ldr	r2, [fp, #-12]
c0009dd0:	e3a01004 	mov	r1, #4
c0009dd4:	e1a03002 	mov	r3, r2
c0009dd8:	e1a03083 	lsl	r3, r3, #1
c0009ddc:	e0833002 	add	r3, r3, r2
c0009de0:	e1a03103 	lsl	r3, r3, #2
c0009de4:	e0803003 	add	r3, r0, r3
c0009de8:	e0833001 	add	r3, r3, r1
c0009dec:	e5933000 	ldr	r3, [r3]
c0009df0:	e3530000 	cmp	r3, #0
c0009df4:	1a000000 	bne	c0009dfc <init_frame+0x204>
c0009df8:	ea000046 	b	c0009f18 <init_frame+0x320>
c0009dfc:	e59f1144 	ldr	r1, [pc, #324]	; c0009f48 <init_frame+0x350>
c0009e00:	e51b200c 	ldr	r2, [fp, #-12]
c0009e04:	e1a03002 	mov	r3, r2
c0009e08:	e1a03083 	lsl	r3, r3, #1
c0009e0c:	e0833002 	add	r3, r3, r2
c0009e10:	e1a03103 	lsl	r3, r3, #2
c0009e14:	e0813003 	add	r3, r1, r3
c0009e18:	e5931000 	ldr	r1, [r3]
c0009e1c:	e59f0124 	ldr	r0, [pc, #292]	; c0009f48 <init_frame+0x350>
c0009e20:	e51b200c 	ldr	r2, [fp, #-12]
c0009e24:	e1a03002 	mov	r3, r2
c0009e28:	e1a03083 	lsl	r3, r3, #1
c0009e2c:	e0833002 	add	r3, r3, r2
c0009e30:	e1a03103 	lsl	r3, r3, #2
c0009e34:	e0803003 	add	r3, r0, r3
c0009e38:	e5930000 	ldr	r0, [r3]
c0009e3c:	e59fe104 	ldr	lr, [pc, #260]	; c0009f48 <init_frame+0x350>
c0009e40:	e51b200c 	ldr	r2, [fp, #-12]
c0009e44:	e3a0c004 	mov	ip, #4
c0009e48:	e1a03002 	mov	r3, r2
c0009e4c:	e1a03083 	lsl	r3, r3, #1
c0009e50:	e0833002 	add	r3, r3, r2
c0009e54:	e1a03103 	lsl	r3, r3, #2
c0009e58:	e08e3003 	add	r3, lr, r3
c0009e5c:	e083300c 	add	r3, r3, ip
c0009e60:	e5933000 	ldr	r3, [r3]
c0009e64:	e080c003 	add	ip, r0, r3
c0009e68:	e59fe0d8 	ldr	lr, [pc, #216]	; c0009f48 <init_frame+0x350>
c0009e6c:	e51b200c 	ldr	r2, [fp, #-12]
c0009e70:	e3a00004 	mov	r0, #4
c0009e74:	e1a03002 	mov	r3, r2
c0009e78:	e1a03083 	lsl	r3, r3, #1
c0009e7c:	e0833002 	add	r3, r3, r2
c0009e80:	e1a03103 	lsl	r3, r3, #2
c0009e84:	e08e3003 	add	r3, lr, r3
c0009e88:	e0833000 	add	r3, r3, r0
c0009e8c:	e5933000 	ldr	r3, [r3]
c0009e90:	e1a03623 	lsr	r3, r3, #12
c0009e94:	e59f00b0 	ldr	r0, [pc, #176]	; c0009f4c <init_frame+0x354>
c0009e98:	e1a0200c 	mov	r2, ip
c0009e9c:	eb000195 	bl	c000a4f8 <printk>
c0009ea0:	e51b3014 	ldr	r3, [fp, #-20]
c0009ea4:	e1a03623 	lsr	r3, r3, #12
c0009ea8:	e51b0020 	ldr	r0, [fp, #-32]
c0009eac:	e51b1018 	ldr	r1, [fp, #-24]
c0009eb0:	e1a02003 	mov	r2, r3
c0009eb4:	e3a03003 	mov	r3, #3
c0009eb8:	ebfffe9f 	bl	c000993c <page_map>
c0009ebc:	e51b3020 	ldr	r3, [fp, #-32]
c0009ec0:	e51b0010 	ldr	r0, [fp, #-16]
c0009ec4:	e1a01003 	mov	r1, r3
c0009ec8:	e3a02000 	mov	r2, #0
c0009ecc:	eb0001d4 	bl	c000a624 <bitmap_create_in_buf>
c0009ed0:	e1a01000 	mov	r1, r0
c0009ed4:	e59fc06c 	ldr	ip, [pc, #108]	; c0009f48 <init_frame+0x350>
c0009ed8:	e51b200c 	ldr	r2, [fp, #-12]
c0009edc:	e3a00008 	mov	r0, #8
c0009ee0:	e1a03002 	mov	r3, r2
c0009ee4:	e1a03083 	lsl	r3, r3, #1
c0009ee8:	e0833002 	add	r3, r3, r2
c0009eec:	e1a03103 	lsl	r3, r3, #2
c0009ef0:	e08c3003 	add	r3, ip, r3
c0009ef4:	e0833000 	add	r3, r3, r0
c0009ef8:	e5831000 	str	r1, [r3]
c0009efc:	e51b2020 	ldr	r2, [fp, #-32]
c0009f00:	e51b3014 	ldr	r3, [fp, #-20]
c0009f04:	e0823003 	add	r3, r2, r3
c0009f08:	e50b3020 	str	r3, [fp, #-32]
c0009f0c:	e51b300c 	ldr	r3, [fp, #-12]
c0009f10:	e2833001 	add	r3, r3, #1
c0009f14:	e50b300c 	str	r3, [fp, #-12]
c0009f18:	e51b3008 	ldr	r3, [fp, #-8]
c0009f1c:	e2833002 	add	r3, r3, #2
c0009f20:	e50b3008 	str	r3, [fp, #-8]
c0009f24:	e51b3008 	ldr	r3, [fp, #-8]
c0009f28:	e353000f 	cmp	r3, #15
c0009f2c:	daffff3a 	ble	c0009c1c <init_frame+0x24>
c0009f30:	e51b3020 	ldr	r3, [fp, #-32]
c0009f34:	e1a00003 	mov	r0, r3
c0009f38:	e24bd004 	sub	sp, fp, #4
c0009f3c:	e8bd4800 	pop	{fp, lr}
c0009f40:	e12fff1e 	bx	lr
c0009f44:	c000f394 	mulgt	r0, r4, r3
c0009f48:	c000f314 	andgt	pc, r0, r4, lsl r3	; <UNPREDICTABLE>
c0009f4c:	c000ece4 	andgt	lr, r0, r4, ror #25

c0009f50 <frame_alloc_in_addr>:
c0009f50:	e92d4800 	push	{fp, lr}
c0009f54:	e28db004 	add	fp, sp, #4
c0009f58:	e24dd010 	sub	sp, sp, #16
c0009f5c:	e50b0010 	str	r0, [fp, #-16]
c0009f60:	e50b1014 	str	r1, [fp, #-20]
c0009f64:	e3a03000 	mov	r3, #0
c0009f68:	e50b3008 	str	r3, [fp, #-8]
c0009f6c:	ea000051 	b	c000a0b8 <frame_alloc_in_addr+0x168>
c0009f70:	e59f1160 	ldr	r1, [pc, #352]	; c000a0d8 <frame_alloc_in_addr+0x188>
c0009f74:	e51b2008 	ldr	r2, [fp, #-8]
c0009f78:	e1a03002 	mov	r3, r2
c0009f7c:	e1a03083 	lsl	r3, r3, #1
c0009f80:	e0833002 	add	r3, r3, r2
c0009f84:	e1a03103 	lsl	r3, r3, #2
c0009f88:	e0813003 	add	r3, r1, r3
c0009f8c:	e5932000 	ldr	r2, [r3]
c0009f90:	e51b3010 	ldr	r3, [fp, #-16]
c0009f94:	e1520003 	cmp	r2, r3
c0009f98:	8a000043 	bhi	c000a0ac <frame_alloc_in_addr+0x15c>
c0009f9c:	e59f1134 	ldr	r1, [pc, #308]	; c000a0d8 <frame_alloc_in_addr+0x188>
c0009fa0:	e51b2008 	ldr	r2, [fp, #-8]
c0009fa4:	e1a03002 	mov	r3, r2
c0009fa8:	e1a03083 	lsl	r3, r3, #1
c0009fac:	e0833002 	add	r3, r3, r2
c0009fb0:	e1a03103 	lsl	r3, r3, #2
c0009fb4:	e0813003 	add	r3, r1, r3
c0009fb8:	e5931000 	ldr	r1, [r3]
c0009fbc:	e59fc114 	ldr	ip, [pc, #276]	; c000a0d8 <frame_alloc_in_addr+0x188>
c0009fc0:	e51b2008 	ldr	r2, [fp, #-8]
c0009fc4:	e3a00004 	mov	r0, #4
c0009fc8:	e1a03002 	mov	r3, r2
c0009fcc:	e1a03083 	lsl	r3, r3, #1
c0009fd0:	e0833002 	add	r3, r3, r2
c0009fd4:	e1a03103 	lsl	r3, r3, #2
c0009fd8:	e08c3003 	add	r3, ip, r3
c0009fdc:	e0833000 	add	r3, r3, r0
c0009fe0:	e5933000 	ldr	r3, [r3]
c0009fe4:	e0812003 	add	r2, r1, r3
c0009fe8:	e51b3010 	ldr	r3, [fp, #-16]
c0009fec:	e1520003 	cmp	r2, r3
c0009ff0:	9a00002d 	bls	c000a0ac <frame_alloc_in_addr+0x15c>
c0009ff4:	e59f10dc 	ldr	r1, [pc, #220]	; c000a0d8 <frame_alloc_in_addr+0x188>
c0009ff8:	e51b2008 	ldr	r2, [fp, #-8]
c0009ffc:	e1a03002 	mov	r3, r2
c000a000:	e1a03083 	lsl	r3, r3, #1
c000a004:	e0833002 	add	r3, r3, r2
c000a008:	e1a03103 	lsl	r3, r3, #2
c000a00c:	e0813003 	add	r3, r1, r3
c000a010:	e5933000 	ldr	r3, [r3]
c000a014:	e51b2010 	ldr	r2, [fp, #-16]
c000a018:	e0633002 	rsb	r3, r3, r2
c000a01c:	e1a03623 	lsr	r3, r3, #12
c000a020:	e50b300c 	str	r3, [fp, #-12]
c000a024:	e59f00ac 	ldr	r0, [pc, #172]	; c000a0d8 <frame_alloc_in_addr+0x188>
c000a028:	e51b2008 	ldr	r2, [fp, #-8]
c000a02c:	e3a01008 	mov	r1, #8
c000a030:	e1a03002 	mov	r3, r2
c000a034:	e1a03083 	lsl	r3, r3, #1
c000a038:	e0833002 	add	r3, r3, r2
c000a03c:	e1a03103 	lsl	r3, r3, #2
c000a040:	e0803003 	add	r3, r0, r3
c000a044:	e0833001 	add	r3, r3, r1
c000a048:	e5933000 	ldr	r3, [r3]
c000a04c:	e1a00003 	mov	r0, r3
c000a050:	e51b100c 	ldr	r1, [fp, #-12]
c000a054:	e51b2014 	ldr	r2, [fp, #-20]
c000a058:	eb000276 	bl	c000aa38 <bitmap_none>
c000a05c:	e1a03000 	mov	r3, r0
c000a060:	e3530000 	cmp	r3, #0
c000a064:	0a000010 	beq	c000a0ac <frame_alloc_in_addr+0x15c>
c000a068:	e59f0068 	ldr	r0, [pc, #104]	; c000a0d8 <frame_alloc_in_addr+0x188>
c000a06c:	e51b2008 	ldr	r2, [fp, #-8]
c000a070:	e3a01008 	mov	r1, #8
c000a074:	e1a03002 	mov	r3, r2
c000a078:	e1a03083 	lsl	r3, r3, #1
c000a07c:	e0833002 	add	r3, r3, r2
c000a080:	e1a03103 	lsl	r3, r3, #2
c000a084:	e0803003 	add	r3, r0, r3
c000a088:	e0833001 	add	r3, r3, r1
c000a08c:	e5933000 	ldr	r3, [r3]
c000a090:	e1a00003 	mov	r0, r3
c000a094:	e51b100c 	ldr	r1, [fp, #-12]
c000a098:	e51b2014 	ldr	r2, [fp, #-20]
c000a09c:	e3a03001 	mov	r3, #1
c000a0a0:	eb0001f2 	bl	c000a870 <bitmap_set_multiple>
c000a0a4:	e51b3010 	ldr	r3, [fp, #-16]
c000a0a8:	ea000006 	b	c000a0c8 <frame_alloc_in_addr+0x178>
c000a0ac:	e51b3008 	ldr	r3, [fp, #-8]
c000a0b0:	e2833001 	add	r3, r3, #1
c000a0b4:	e50b3008 	str	r3, [fp, #-8]
c000a0b8:	e51b3008 	ldr	r3, [fp, #-8]
c000a0bc:	e3530007 	cmp	r3, #7
c000a0c0:	daffffaa 	ble	c0009f70 <frame_alloc_in_addr+0x20>
c000a0c4:	e3e03000 	mvn	r3, #0
c000a0c8:	e1a00003 	mov	r0, r3
c000a0cc:	e24bd004 	sub	sp, fp, #4
c000a0d0:	e8bd4800 	pop	{fp, lr}
c000a0d4:	e12fff1e 	bx	lr
c000a0d8:	c000f314 	andgt	pc, r0, r4, lsl r3	; <UNPREDICTABLE>

c000a0dc <frame_alloc>:
c000a0dc:	e92d4800 	push	{fp, lr}
c000a0e0:	e28db004 	add	fp, sp, #4
c000a0e4:	e24dd010 	sub	sp, sp, #16
c000a0e8:	e50b0010 	str	r0, [fp, #-16]
c000a0ec:	e3a03000 	mov	r3, #0
c000a0f0:	e50b3008 	str	r3, [fp, #-8]
c000a0f4:	ea00003d 	b	c000a1f0 <frame_alloc+0x114>
c000a0f8:	e59f0110 	ldr	r0, [pc, #272]	; c000a210 <frame_alloc+0x134>
c000a0fc:	e51b2008 	ldr	r2, [fp, #-8]
c000a100:	e3a01004 	mov	r1, #4
c000a104:	e1a03002 	mov	r3, r2
c000a108:	e1a03083 	lsl	r3, r3, #1
c000a10c:	e0833002 	add	r3, r3, r2
c000a110:	e1a03103 	lsl	r3, r3, #2
c000a114:	e0803003 	add	r3, r0, r3
c000a118:	e0833001 	add	r3, r3, r1
c000a11c:	e5933000 	ldr	r3, [r3]
c000a120:	e3530000 	cmp	r3, #0
c000a124:	1a000000 	bne	c000a12c <frame_alloc+0x50>
c000a128:	ea000033 	b	c000a1fc <frame_alloc+0x120>
c000a12c:	e59f00dc 	ldr	r0, [pc, #220]	; c000a210 <frame_alloc+0x134>
c000a130:	e51b2008 	ldr	r2, [fp, #-8]
c000a134:	e3a01008 	mov	r1, #8
c000a138:	e1a03002 	mov	r3, r2
c000a13c:	e1a03083 	lsl	r3, r3, #1
c000a140:	e0833002 	add	r3, r3, r2
c000a144:	e1a03103 	lsl	r3, r3, #2
c000a148:	e0803003 	add	r3, r0, r3
c000a14c:	e0833001 	add	r3, r3, r1
c000a150:	e5933000 	ldr	r3, [r3]
c000a154:	e1a00003 	mov	r0, r3
c000a158:	e3a01000 	mov	r1, #0
c000a15c:	e51b2010 	ldr	r2, [fp, #-16]
c000a160:	e3a03000 	mov	r3, #0
c000a164:	eb00025b 	bl	c000aad8 <bitmap_scan>
c000a168:	e50b000c 	str	r0, [fp, #-12]
c000a16c:	e51b300c 	ldr	r3, [fp, #-12]
c000a170:	e3730001 	cmn	r3, #1
c000a174:	0a00001a 	beq	c000a1e4 <frame_alloc+0x108>
c000a178:	e59f0090 	ldr	r0, [pc, #144]	; c000a210 <frame_alloc+0x134>
c000a17c:	e51b2008 	ldr	r2, [fp, #-8]
c000a180:	e3a01008 	mov	r1, #8
c000a184:	e1a03002 	mov	r3, r2
c000a188:	e1a03083 	lsl	r3, r3, #1
c000a18c:	e0833002 	add	r3, r3, r2
c000a190:	e1a03103 	lsl	r3, r3, #2
c000a194:	e0803003 	add	r3, r0, r3
c000a198:	e0833001 	add	r3, r3, r1
c000a19c:	e5933000 	ldr	r3, [r3]
c000a1a0:	e1a00003 	mov	r0, r3
c000a1a4:	e51b100c 	ldr	r1, [fp, #-12]
c000a1a8:	e51b2010 	ldr	r2, [fp, #-16]
c000a1ac:	e3a03001 	mov	r3, #1
c000a1b0:	eb0001ae 	bl	c000a870 <bitmap_set_multiple>
c000a1b4:	e59f1054 	ldr	r1, [pc, #84]	; c000a210 <frame_alloc+0x134>
c000a1b8:	e51b2008 	ldr	r2, [fp, #-8]
c000a1bc:	e1a03002 	mov	r3, r2
c000a1c0:	e1a03083 	lsl	r3, r3, #1
c000a1c4:	e0833002 	add	r3, r3, r2
c000a1c8:	e1a03103 	lsl	r3, r3, #2
c000a1cc:	e0813003 	add	r3, r1, r3
c000a1d0:	e5932000 	ldr	r2, [r3]
c000a1d4:	e51b300c 	ldr	r3, [fp, #-12]
c000a1d8:	e1a03603 	lsl	r3, r3, #12
c000a1dc:	e0823003 	add	r3, r2, r3
c000a1e0:	ea000006 	b	c000a200 <frame_alloc+0x124>
c000a1e4:	e51b3008 	ldr	r3, [fp, #-8]
c000a1e8:	e2833001 	add	r3, r3, #1
c000a1ec:	e50b3008 	str	r3, [fp, #-8]
c000a1f0:	e51b3008 	ldr	r3, [fp, #-8]
c000a1f4:	e3530007 	cmp	r3, #7
c000a1f8:	daffffbe 	ble	c000a0f8 <frame_alloc+0x1c>
c000a1fc:	e3e03000 	mvn	r3, #0
c000a200:	e1a00003 	mov	r0, r3
c000a204:	e24bd004 	sub	sp, fp, #4
c000a208:	e8bd4800 	pop	{fp, lr}
c000a20c:	e12fff1e 	bx	lr
c000a210:	c000f314 	andgt	pc, r0, r4, lsl r3	; <UNPREDICTABLE>

c000a214 <frame_free>:
c000a214:	e92d4800 	push	{fp, lr}
c000a218:	e28db004 	add	fp, sp, #4
c000a21c:	e24dd010 	sub	sp, sp, #16
c000a220:	e50b0010 	str	r0, [fp, #-16]
c000a224:	e50b1014 	str	r1, [fp, #-20]
c000a228:	e3a03000 	mov	r3, #0
c000a22c:	e50b3008 	str	r3, [fp, #-8]
c000a230:	ea00004c 	b	c000a368 <frame_free+0x154>
c000a234:	e59f0144 	ldr	r0, [pc, #324]	; c000a380 <frame_free+0x16c>
c000a238:	e51b2008 	ldr	r2, [fp, #-8]
c000a23c:	e3a01004 	mov	r1, #4
c000a240:	e1a03002 	mov	r3, r2
c000a244:	e1a03083 	lsl	r3, r3, #1
c000a248:	e0833002 	add	r3, r3, r2
c000a24c:	e1a03103 	lsl	r3, r3, #2
c000a250:	e0803003 	add	r3, r0, r3
c000a254:	e0833001 	add	r3, r3, r1
c000a258:	e5933000 	ldr	r3, [r3]
c000a25c:	e3530000 	cmp	r3, #0
c000a260:	1a000000 	bne	c000a268 <frame_free+0x54>
c000a264:	ea000042 	b	c000a374 <frame_free+0x160>
c000a268:	e59f1110 	ldr	r1, [pc, #272]	; c000a380 <frame_free+0x16c>
c000a26c:	e51b2008 	ldr	r2, [fp, #-8]
c000a270:	e1a03002 	mov	r3, r2
c000a274:	e1a03083 	lsl	r3, r3, #1
c000a278:	e0833002 	add	r3, r3, r2
c000a27c:	e1a03103 	lsl	r3, r3, #2
c000a280:	e0813003 	add	r3, r1, r3
c000a284:	e5932000 	ldr	r2, [r3]
c000a288:	e51b3010 	ldr	r3, [fp, #-16]
c000a28c:	e1520003 	cmp	r2, r3
c000a290:	8a000031 	bhi	c000a35c <frame_free+0x148>
c000a294:	e59f10e4 	ldr	r1, [pc, #228]	; c000a380 <frame_free+0x16c>
c000a298:	e51b2008 	ldr	r2, [fp, #-8]
c000a29c:	e1a03002 	mov	r3, r2
c000a2a0:	e1a03083 	lsl	r3, r3, #1
c000a2a4:	e0833002 	add	r3, r3, r2
c000a2a8:	e1a03103 	lsl	r3, r3, #2
c000a2ac:	e0813003 	add	r3, r1, r3
c000a2b0:	e5931000 	ldr	r1, [r3]
c000a2b4:	e59fc0c4 	ldr	ip, [pc, #196]	; c000a380 <frame_free+0x16c>
c000a2b8:	e51b2008 	ldr	r2, [fp, #-8]
c000a2bc:	e3a00004 	mov	r0, #4
c000a2c0:	e1a03002 	mov	r3, r2
c000a2c4:	e1a03083 	lsl	r3, r3, #1
c000a2c8:	e0833002 	add	r3, r3, r2
c000a2cc:	e1a03103 	lsl	r3, r3, #2
c000a2d0:	e08c3003 	add	r3, ip, r3
c000a2d4:	e0833000 	add	r3, r3, r0
c000a2d8:	e5933000 	ldr	r3, [r3]
c000a2dc:	e0812003 	add	r2, r1, r3
c000a2e0:	e51b3010 	ldr	r3, [fp, #-16]
c000a2e4:	e1520003 	cmp	r2, r3
c000a2e8:	9a00001b 	bls	c000a35c <frame_free+0x148>
c000a2ec:	e59f108c 	ldr	r1, [pc, #140]	; c000a380 <frame_free+0x16c>
c000a2f0:	e51b2008 	ldr	r2, [fp, #-8]
c000a2f4:	e1a03002 	mov	r3, r2
c000a2f8:	e1a03083 	lsl	r3, r3, #1
c000a2fc:	e0833002 	add	r3, r3, r2
c000a300:	e1a03103 	lsl	r3, r3, #2
c000a304:	e0813003 	add	r3, r1, r3
c000a308:	e5933000 	ldr	r3, [r3]
c000a30c:	e51b2010 	ldr	r2, [fp, #-16]
c000a310:	e0633002 	rsb	r3, r3, r2
c000a314:	e1a03623 	lsr	r3, r3, #12
c000a318:	e50b300c 	str	r3, [fp, #-12]
c000a31c:	e59f005c 	ldr	r0, [pc, #92]	; c000a380 <frame_free+0x16c>
c000a320:	e51b2008 	ldr	r2, [fp, #-8]
c000a324:	e3a01008 	mov	r1, #8
c000a328:	e1a03002 	mov	r3, r2
c000a32c:	e1a03083 	lsl	r3, r3, #1
c000a330:	e0833002 	add	r3, r3, r2
c000a334:	e1a03103 	lsl	r3, r3, #2
c000a338:	e0803003 	add	r3, r0, r3
c000a33c:	e0833001 	add	r3, r3, r1
c000a340:	e5933000 	ldr	r3, [r3]
c000a344:	e1a00003 	mov	r0, r3
c000a348:	e51b100c 	ldr	r1, [fp, #-12]
c000a34c:	e51b2014 	ldr	r2, [fp, #-20]
c000a350:	e3a03000 	mov	r3, #0
c000a354:	eb000145 	bl	c000a870 <bitmap_set_multiple>
c000a358:	ea000005 	b	c000a374 <frame_free+0x160>
c000a35c:	e51b3008 	ldr	r3, [fp, #-8]
c000a360:	e2833001 	add	r3, r3, #1
c000a364:	e50b3008 	str	r3, [fp, #-8]
c000a368:	e51b3008 	ldr	r3, [fp, #-8]
c000a36c:	e3530007 	cmp	r3, #7
c000a370:	9affffaf 	bls	c000a234 <frame_free+0x20>
c000a374:	e24bd004 	sub	sp, fp, #4
c000a378:	e8bd4800 	pop	{fp, lr}
c000a37c:	e12fff1e 	bx	lr
c000a380:	c000f314 	andgt	pc, r0, r4, lsl r3	; <UNPREDICTABLE>

c000a384 <kmalloc>:
c000a384:	e92d4800 	push	{fp, lr}
c000a388:	e28db004 	add	fp, sp, #4
c000a38c:	e24dd010 	sub	sp, sp, #16
c000a390:	e50b0010 	str	r0, [fp, #-16]
c000a394:	e51b0010 	ldr	r0, [fp, #-16]
c000a398:	eb000d10 	bl	c000d7e0 <tlsf_malloc>
c000a39c:	e50b0008 	str	r0, [fp, #-8]
c000a3a0:	e51b3008 	ldr	r3, [fp, #-8]
c000a3a4:	e1a00003 	mov	r0, r3
c000a3a8:	e24bd004 	sub	sp, fp, #4
c000a3ac:	e8bd4800 	pop	{fp, lr}
c000a3b0:	e12fff1e 	bx	lr

c000a3b4 <krealloc>:
c000a3b4:	e92d4800 	push	{fp, lr}
c000a3b8:	e28db004 	add	fp, sp, #4
c000a3bc:	e24dd010 	sub	sp, sp, #16
c000a3c0:	e50b0010 	str	r0, [fp, #-16]
c000a3c4:	e50b1014 	str	r1, [fp, #-20]
c000a3c8:	e51b0010 	ldr	r0, [fp, #-16]
c000a3cc:	e51b1014 	ldr	r1, [fp, #-20]
c000a3d0:	eb000d1f 	bl	c000d854 <tlsf_realloc>
c000a3d4:	e50b0008 	str	r0, [fp, #-8]
c000a3d8:	e51b3008 	ldr	r3, [fp, #-8]
c000a3dc:	e1a00003 	mov	r0, r3
c000a3e0:	e24bd004 	sub	sp, fp, #4
c000a3e4:	e8bd4800 	pop	{fp, lr}
c000a3e8:	e12fff1e 	bx	lr

c000a3ec <kfree>:
c000a3ec:	e92d4800 	push	{fp, lr}
c000a3f0:	e28db004 	add	fp, sp, #4
c000a3f4:	e24dd008 	sub	sp, sp, #8
c000a3f8:	e50b0008 	str	r0, [fp, #-8]
c000a3fc:	e51b0008 	ldr	r0, [fp, #-8]
c000a400:	eb000d06 	bl	c000d820 <tlsf_free>
c000a404:	e24bd004 	sub	sp, fp, #4
c000a408:	e8bd4800 	pop	{fp, lr}
c000a40c:	e12fff1e 	bx	lr

c000a410 <aligned_kmalloc>:
c000a410:	e92d4800 	push	{fp, lr}
c000a414:	e28db004 	add	fp, sp, #4
c000a418:	e24dd010 	sub	sp, sp, #16
c000a41c:	e50b0010 	str	r0, [fp, #-16]
c000a420:	e50b1014 	str	r1, [fp, #-20]
c000a424:	e51b2010 	ldr	r2, [fp, #-16]
c000a428:	e51b3014 	ldr	r3, [fp, #-20]
c000a42c:	e0823003 	add	r3, r2, r3
c000a430:	e2833003 	add	r3, r3, #3
c000a434:	e1a00003 	mov	r0, r3
c000a438:	ebffffd1 	bl	c000a384 <kmalloc>
c000a43c:	e50b0008 	str	r0, [fp, #-8]
c000a440:	e51b3008 	ldr	r3, [fp, #-8]
c000a444:	e3530000 	cmp	r3, #0
c000a448:	1a000001 	bne	c000a454 <aligned_kmalloc+0x44>
c000a44c:	e51b3008 	ldr	r3, [fp, #-8]
c000a450:	ea00000d 	b	c000a48c <aligned_kmalloc+0x7c>
c000a454:	e51b3014 	ldr	r3, [fp, #-20]
c000a458:	e2833003 	add	r3, r3, #3
c000a45c:	e51b2008 	ldr	r2, [fp, #-8]
c000a460:	e0823003 	add	r3, r2, r3
c000a464:	e1a02003 	mov	r2, r3
c000a468:	e51b3014 	ldr	r3, [fp, #-20]
c000a46c:	e2633000 	rsb	r3, r3, #0
c000a470:	e0023003 	and	r3, r2, r3
c000a474:	e50b300c 	str	r3, [fp, #-12]
c000a478:	e51b300c 	ldr	r3, [fp, #-12]
c000a47c:	e2433004 	sub	r3, r3, #4
c000a480:	e51b2008 	ldr	r2, [fp, #-8]
c000a484:	e5832000 	str	r2, [r3]
c000a488:	e51b300c 	ldr	r3, [fp, #-12]
c000a48c:	e1a00003 	mov	r0, r3
c000a490:	e24bd004 	sub	sp, fp, #4
c000a494:	e8bd4800 	pop	{fp, lr}
c000a498:	e12fff1e 	bx	lr

c000a49c <aligned_kfree>:
c000a49c:	e92d4800 	push	{fp, lr}
c000a4a0:	e28db004 	add	fp, sp, #4
c000a4a4:	e24dd008 	sub	sp, sp, #8
c000a4a8:	e50b0008 	str	r0, [fp, #-8]
c000a4ac:	e51b3008 	ldr	r3, [fp, #-8]
c000a4b0:	e2433004 	sub	r3, r3, #4
c000a4b4:	e5933000 	ldr	r3, [r3]
c000a4b8:	e1a00003 	mov	r0, r3
c000a4bc:	ebffffca 	bl	c000a3ec <kfree>
c000a4c0:	e24bd004 	sub	sp, fp, #4
c000a4c4:	e8bd4800 	pop	{fp, lr}
c000a4c8:	e12fff1e 	bx	lr

c000a4cc <init_kmalloc>:
c000a4cc:	e92d4800 	push	{fp, lr}
c000a4d0:	e28db004 	add	fp, sp, #4
c000a4d4:	e24dd008 	sub	sp, sp, #8
c000a4d8:	e50b0008 	str	r0, [fp, #-8]
c000a4dc:	e50b100c 	str	r1, [fp, #-12]
c000a4e0:	e51b000c 	ldr	r0, [fp, #-12]
c000a4e4:	e51b1008 	ldr	r1, [fp, #-8]
c000a4e8:	eb000b92 	bl	c000d338 <init_memory_pool>
c000a4ec:	e24bd004 	sub	sp, fp, #4
c000a4f0:	e8bd4800 	pop	{fp, lr}
c000a4f4:	e12fff1e 	bx	lr

c000a4f8 <printk>:
c000a4f8:	e92d000f 	push	{r0, r1, r2, r3}
c000a4fc:	e92d4800 	push	{fp, lr}
c000a500:	e28db004 	add	fp, sp, #4
c000a504:	e24dd090 	sub	sp, sp, #144	; 0x90
c000a508:	e28b3008 	add	r3, fp, #8
c000a50c:	e50b3090 	str	r3, [fp, #-144]	; 0x90
c000a510:	e3a03000 	mov	r3, #0
c000a514:	e50b3008 	str	r3, [fp, #-8]
c000a518:	ea00000a 	b	c000a548 <printk+0x50>
c000a51c:	e3e03087 	mvn	r3, #135	; 0x87
c000a520:	e51b2008 	ldr	r2, [fp, #-8]
c000a524:	e24b1004 	sub	r1, fp, #4
c000a528:	e0812002 	add	r2, r1, r2
c000a52c:	e0823003 	add	r3, r2, r3
c000a530:	e5d33000 	ldrb	r3, [r3]
c000a534:	e1a00003 	mov	r0, r3
c000a538:	ebfff894 	bl	c0008790 <sys_putchar>
c000a53c:	e51b3008 	ldr	r3, [fp, #-8]
c000a540:	e2833001 	add	r3, r3, #1
c000a544:	e50b3008 	str	r3, [fp, #-8]
c000a548:	e51b2008 	ldr	r2, [fp, #-8]
c000a54c:	e51b300c 	ldr	r3, [fp, #-12]
c000a550:	e1520003 	cmp	r2, r3
c000a554:	bafffff0 	blt	c000a51c <printk+0x24>
c000a558:	e51b300c 	ldr	r3, [fp, #-12]
c000a55c:	e1a00003 	mov	r0, r3
c000a560:	e24bd004 	sub	sp, fp, #4
c000a564:	e8bd4800 	pop	{fp, lr}
c000a568:	e28dd010 	add	sp, sp, #16
c000a56c:	e12fff1e 	bx	lr

c000a570 <elem_idx>:
c000a570:	e52db004 	push	{fp}		; (str fp, [sp, #-4]!)
c000a574:	e28db000 	add	fp, sp, #0
c000a578:	e24dd00c 	sub	sp, sp, #12
c000a57c:	e50b0008 	str	r0, [fp, #-8]
c000a580:	e51b3008 	ldr	r3, [fp, #-8]
c000a584:	e1a032a3 	lsr	r3, r3, #5
c000a588:	e1a00003 	mov	r0, r3
c000a58c:	e24bd000 	sub	sp, fp, #0
c000a590:	e49db004 	pop	{fp}		; (ldr fp, [sp], #4)
c000a594:	e12fff1e 	bx	lr

c000a598 <bit_mask>:
c000a598:	e52db004 	push	{fp}		; (str fp, [sp, #-4]!)
c000a59c:	e28db000 	add	fp, sp, #0
c000a5a0:	e24dd00c 	sub	sp, sp, #12
c000a5a4:	e50b0008 	str	r0, [fp, #-8]
c000a5a8:	e51b3008 	ldr	r3, [fp, #-8]
c000a5ac:	e203301f 	and	r3, r3, #31
c000a5b0:	e3a02001 	mov	r2, #1
c000a5b4:	e1a03312 	lsl	r3, r2, r3
c000a5b8:	e1a00003 	mov	r0, r3
c000a5bc:	e24bd000 	sub	sp, fp, #0
c000a5c0:	e49db004 	pop	{fp}		; (ldr fp, [sp], #4)
c000a5c4:	e12fff1e 	bx	lr

c000a5c8 <elem_cnt>:
c000a5c8:	e52db004 	push	{fp}		; (str fp, [sp, #-4]!)
c000a5cc:	e28db000 	add	fp, sp, #0
c000a5d0:	e24dd00c 	sub	sp, sp, #12
c000a5d4:	e50b0008 	str	r0, [fp, #-8]
c000a5d8:	e51b3008 	ldr	r3, [fp, #-8]
c000a5dc:	e283301f 	add	r3, r3, #31
c000a5e0:	e1a032a3 	lsr	r3, r3, #5
c000a5e4:	e1a00003 	mov	r0, r3
c000a5e8:	e24bd000 	sub	sp, fp, #0
c000a5ec:	e49db004 	pop	{fp}		; (ldr fp, [sp], #4)
c000a5f0:	e12fff1e 	bx	lr

c000a5f4 <byte_cnt>:
c000a5f4:	e92d4800 	push	{fp, lr}
c000a5f8:	e28db004 	add	fp, sp, #4
c000a5fc:	e24dd008 	sub	sp, sp, #8
c000a600:	e50b0008 	str	r0, [fp, #-8]
c000a604:	e51b0008 	ldr	r0, [fp, #-8]
c000a608:	ebffffee 	bl	c000a5c8 <elem_cnt>
c000a60c:	e1a03000 	mov	r3, r0
c000a610:	e1a03103 	lsl	r3, r3, #2
c000a614:	e1a00003 	mov	r0, r3
c000a618:	e24bd004 	sub	sp, fp, #4
c000a61c:	e8bd4800 	pop	{fp, lr}
c000a620:	e12fff1e 	bx	lr

c000a624 <bitmap_create_in_buf>:
c000a624:	e92d4800 	push	{fp, lr}
c000a628:	e28db004 	add	fp, sp, #4
c000a62c:	e24dd018 	sub	sp, sp, #24
c000a630:	e50b0010 	str	r0, [fp, #-16]
c000a634:	e50b1014 	str	r1, [fp, #-20]
c000a638:	e50b2018 	str	r2, [fp, #-24]
c000a63c:	e51b3014 	ldr	r3, [fp, #-20]
c000a640:	e50b3008 	str	r3, [fp, #-8]
c000a644:	e51b3008 	ldr	r3, [fp, #-8]
c000a648:	e51b2010 	ldr	r2, [fp, #-16]
c000a64c:	e5832000 	str	r2, [r3]
c000a650:	e51b3008 	ldr	r3, [fp, #-8]
c000a654:	e2832008 	add	r2, r3, #8
c000a658:	e51b3008 	ldr	r3, [fp, #-8]
c000a65c:	e5832004 	str	r2, [r3, #4]
c000a660:	e51b0008 	ldr	r0, [fp, #-8]
c000a664:	e3a01000 	mov	r1, #0
c000a668:	eb000070 	bl	c000a830 <bitmap_set_all>
c000a66c:	e51b3008 	ldr	r3, [fp, #-8]
c000a670:	e1a00003 	mov	r0, r3
c000a674:	e24bd004 	sub	sp, fp, #4
c000a678:	e8bd4800 	pop	{fp, lr}
c000a67c:	e12fff1e 	bx	lr

c000a680 <bitmap_buf_size>:
c000a680:	e92d4800 	push	{fp, lr}
c000a684:	e28db004 	add	fp, sp, #4
c000a688:	e24dd008 	sub	sp, sp, #8
c000a68c:	e50b0008 	str	r0, [fp, #-8]
c000a690:	e51b0008 	ldr	r0, [fp, #-8]
c000a694:	ebffffd6 	bl	c000a5f4 <byte_cnt>
c000a698:	e1a03000 	mov	r3, r0
c000a69c:	e2833008 	add	r3, r3, #8
c000a6a0:	e1a00003 	mov	r0, r3
c000a6a4:	e24bd004 	sub	sp, fp, #4
c000a6a8:	e8bd4800 	pop	{fp, lr}
c000a6ac:	e12fff1e 	bx	lr

c000a6b0 <bitmap_size>:
c000a6b0:	e52db004 	push	{fp}		; (str fp, [sp, #-4]!)
c000a6b4:	e28db000 	add	fp, sp, #0
c000a6b8:	e24dd00c 	sub	sp, sp, #12
c000a6bc:	e50b0008 	str	r0, [fp, #-8]
c000a6c0:	e51b3008 	ldr	r3, [fp, #-8]
c000a6c4:	e5933000 	ldr	r3, [r3]
c000a6c8:	e1a00003 	mov	r0, r3
c000a6cc:	e24bd000 	sub	sp, fp, #0
c000a6d0:	e49db004 	pop	{fp}		; (ldr fp, [sp], #4)
c000a6d4:	e12fff1e 	bx	lr

c000a6d8 <bitmap_set>:
c000a6d8:	e92d4800 	push	{fp, lr}
c000a6dc:	e28db004 	add	fp, sp, #4
c000a6e0:	e24dd010 	sub	sp, sp, #16
c000a6e4:	e50b0008 	str	r0, [fp, #-8]
c000a6e8:	e50b100c 	str	r1, [fp, #-12]
c000a6ec:	e50b2010 	str	r2, [fp, #-16]
c000a6f0:	e51b3010 	ldr	r3, [fp, #-16]
c000a6f4:	e3530000 	cmp	r3, #0
c000a6f8:	0a000003 	beq	c000a70c <bitmap_set+0x34>
c000a6fc:	e51b0008 	ldr	r0, [fp, #-8]
c000a700:	e51b100c 	ldr	r1, [fp, #-12]
c000a704:	eb000006 	bl	c000a724 <bitmap_mark>
c000a708:	ea000002 	b	c000a718 <bitmap_set+0x40>
c000a70c:	e51b0008 	ldr	r0, [fp, #-8]
c000a710:	e51b100c 	ldr	r1, [fp, #-12]
c000a714:	eb000010 	bl	c000a75c <bitmap_reset>
c000a718:	e24bd004 	sub	sp, fp, #4
c000a71c:	e8bd4800 	pop	{fp, lr}
c000a720:	e12fff1e 	bx	lr

c000a724 <bitmap_mark>:
c000a724:	e92d4800 	push	{fp, lr}
c000a728:	e28db004 	add	fp, sp, #4
c000a72c:	e24dd010 	sub	sp, sp, #16
c000a730:	e50b0010 	str	r0, [fp, #-16]
c000a734:	e50b1014 	str	r1, [fp, #-20]
c000a738:	e51b0014 	ldr	r0, [fp, #-20]
c000a73c:	ebffff8b 	bl	c000a570 <elem_idx>
c000a740:	e50b0008 	str	r0, [fp, #-8]
c000a744:	e51b0014 	ldr	r0, [fp, #-20]
c000a748:	ebffff92 	bl	c000a598 <bit_mask>
c000a74c:	e50b000c 	str	r0, [fp, #-12]
c000a750:	e24bd004 	sub	sp, fp, #4
c000a754:	e8bd4800 	pop	{fp, lr}
c000a758:	e12fff1e 	bx	lr

c000a75c <bitmap_reset>:
c000a75c:	e92d4800 	push	{fp, lr}
c000a760:	e28db004 	add	fp, sp, #4
c000a764:	e24dd010 	sub	sp, sp, #16
c000a768:	e50b0010 	str	r0, [fp, #-16]
c000a76c:	e50b1014 	str	r1, [fp, #-20]
c000a770:	e51b0014 	ldr	r0, [fp, #-20]
c000a774:	ebffff7d 	bl	c000a570 <elem_idx>
c000a778:	e50b0008 	str	r0, [fp, #-8]
c000a77c:	e51b0014 	ldr	r0, [fp, #-20]
c000a780:	ebffff84 	bl	c000a598 <bit_mask>
c000a784:	e50b000c 	str	r0, [fp, #-12]
c000a788:	e24bd004 	sub	sp, fp, #4
c000a78c:	e8bd4800 	pop	{fp, lr}
c000a790:	e12fff1e 	bx	lr

c000a794 <bitmap_flip>:
c000a794:	e92d4800 	push	{fp, lr}
c000a798:	e28db004 	add	fp, sp, #4
c000a79c:	e24dd010 	sub	sp, sp, #16
c000a7a0:	e50b0010 	str	r0, [fp, #-16]
c000a7a4:	e50b1014 	str	r1, [fp, #-20]
c000a7a8:	e51b0014 	ldr	r0, [fp, #-20]
c000a7ac:	ebffff6f 	bl	c000a570 <elem_idx>
c000a7b0:	e50b0008 	str	r0, [fp, #-8]
c000a7b4:	e51b0014 	ldr	r0, [fp, #-20]
c000a7b8:	ebffff76 	bl	c000a598 <bit_mask>
c000a7bc:	e50b000c 	str	r0, [fp, #-12]
c000a7c0:	e24bd004 	sub	sp, fp, #4
c000a7c4:	e8bd4800 	pop	{fp, lr}
c000a7c8:	e12fff1e 	bx	lr

c000a7cc <bitmap_test>:
c000a7cc:	e92d4810 	push	{r4, fp, lr}
c000a7d0:	e28db008 	add	fp, sp, #8
c000a7d4:	e24dd00c 	sub	sp, sp, #12
c000a7d8:	e50b0010 	str	r0, [fp, #-16]
c000a7dc:	e50b1014 	str	r1, [fp, #-20]
c000a7e0:	e51b3010 	ldr	r3, [fp, #-16]
c000a7e4:	e5934004 	ldr	r4, [r3, #4]
c000a7e8:	e51b0014 	ldr	r0, [fp, #-20]
c000a7ec:	ebffff5f 	bl	c000a570 <elem_idx>
c000a7f0:	e1a03000 	mov	r3, r0
c000a7f4:	e1a03103 	lsl	r3, r3, #2
c000a7f8:	e0843003 	add	r3, r4, r3
c000a7fc:	e5934000 	ldr	r4, [r3]
c000a800:	e51b0014 	ldr	r0, [fp, #-20]
c000a804:	ebffff63 	bl	c000a598 <bit_mask>
c000a808:	e1a03000 	mov	r3, r0
c000a80c:	e0043003 	and	r3, r4, r3
c000a810:	e3530000 	cmp	r3, #0
c000a814:	03a03000 	moveq	r3, #0
c000a818:	13a03001 	movne	r3, #1
c000a81c:	e20330ff 	and	r3, r3, #255	; 0xff
c000a820:	e1a00003 	mov	r0, r3
c000a824:	e24bd008 	sub	sp, fp, #8
c000a828:	e8bd4810 	pop	{r4, fp, lr}
c000a82c:	e12fff1e 	bx	lr

c000a830 <bitmap_set_all>:
c000a830:	e92d4800 	push	{fp, lr}
c000a834:	e28db004 	add	fp, sp, #4
c000a838:	e24dd008 	sub	sp, sp, #8
c000a83c:	e50b0008 	str	r0, [fp, #-8]
c000a840:	e50b100c 	str	r1, [fp, #-12]
c000a844:	e51b0008 	ldr	r0, [fp, #-8]
c000a848:	ebffff98 	bl	c000a6b0 <bitmap_size>
c000a84c:	e1a03000 	mov	r3, r0
c000a850:	e51b0008 	ldr	r0, [fp, #-8]
c000a854:	e3a01000 	mov	r1, #0
c000a858:	e1a02003 	mov	r2, r3
c000a85c:	e51b300c 	ldr	r3, [fp, #-12]
c000a860:	eb000002 	bl	c000a870 <bitmap_set_multiple>
c000a864:	e24bd004 	sub	sp, fp, #4
c000a868:	e8bd4800 	pop	{fp, lr}
c000a86c:	e12fff1e 	bx	lr

c000a870 <bitmap_set_multiple>:
c000a870:	e92d4800 	push	{fp, lr}
c000a874:	e28db004 	add	fp, sp, #4
c000a878:	e24dd018 	sub	sp, sp, #24
c000a87c:	e50b0010 	str	r0, [fp, #-16]
c000a880:	e50b1014 	str	r1, [fp, #-20]
c000a884:	e50b2018 	str	r2, [fp, #-24]
c000a888:	e50b301c 	str	r3, [fp, #-28]
c000a88c:	e3a03000 	mov	r3, #0
c000a890:	e50b3008 	str	r3, [fp, #-8]
c000a894:	ea000009 	b	c000a8c0 <bitmap_set_multiple+0x50>
c000a898:	e51b2014 	ldr	r2, [fp, #-20]
c000a89c:	e51b3008 	ldr	r3, [fp, #-8]
c000a8a0:	e0823003 	add	r3, r2, r3
c000a8a4:	e51b0010 	ldr	r0, [fp, #-16]
c000a8a8:	e1a01003 	mov	r1, r3
c000a8ac:	e51b201c 	ldr	r2, [fp, #-28]
c000a8b0:	ebffff88 	bl	c000a6d8 <bitmap_set>
c000a8b4:	e51b3008 	ldr	r3, [fp, #-8]
c000a8b8:	e2833001 	add	r3, r3, #1
c000a8bc:	e50b3008 	str	r3, [fp, #-8]
c000a8c0:	e51b2008 	ldr	r2, [fp, #-8]
c000a8c4:	e51b3018 	ldr	r3, [fp, #-24]
c000a8c8:	e1520003 	cmp	r2, r3
c000a8cc:	3afffff1 	bcc	c000a898 <bitmap_set_multiple+0x28>
c000a8d0:	e24bd004 	sub	sp, fp, #4
c000a8d4:	e8bd4800 	pop	{fp, lr}
c000a8d8:	e12fff1e 	bx	lr

c000a8dc <bitmap_count>:
c000a8dc:	e92d4800 	push	{fp, lr}
c000a8e0:	e28db004 	add	fp, sp, #4
c000a8e4:	e24dd018 	sub	sp, sp, #24
c000a8e8:	e50b0010 	str	r0, [fp, #-16]
c000a8ec:	e50b1014 	str	r1, [fp, #-20]
c000a8f0:	e50b2018 	str	r2, [fp, #-24]
c000a8f4:	e50b301c 	str	r3, [fp, #-28]
c000a8f8:	e3a03000 	mov	r3, #0
c000a8fc:	e50b300c 	str	r3, [fp, #-12]
c000a900:	e3a03000 	mov	r3, #0
c000a904:	e50b3008 	str	r3, [fp, #-8]
c000a908:	ea00000f 	b	c000a94c <bitmap_count+0x70>
c000a90c:	e51b2014 	ldr	r2, [fp, #-20]
c000a910:	e51b3008 	ldr	r3, [fp, #-8]
c000a914:	e0823003 	add	r3, r2, r3
c000a918:	e51b0010 	ldr	r0, [fp, #-16]
c000a91c:	e1a01003 	mov	r1, r3
c000a920:	ebffffa9 	bl	c000a7cc <bitmap_test>
c000a924:	e1a02000 	mov	r2, r0
c000a928:	e51b301c 	ldr	r3, [fp, #-28]
c000a92c:	e1520003 	cmp	r2, r3
c000a930:	1a000002 	bne	c000a940 <bitmap_count+0x64>
c000a934:	e51b300c 	ldr	r3, [fp, #-12]
c000a938:	e2833001 	add	r3, r3, #1
c000a93c:	e50b300c 	str	r3, [fp, #-12]
c000a940:	e51b3008 	ldr	r3, [fp, #-8]
c000a944:	e2833001 	add	r3, r3, #1
c000a948:	e50b3008 	str	r3, [fp, #-8]
c000a94c:	e51b2008 	ldr	r2, [fp, #-8]
c000a950:	e51b3018 	ldr	r3, [fp, #-24]
c000a954:	e1520003 	cmp	r2, r3
c000a958:	3affffeb 	bcc	c000a90c <bitmap_count+0x30>
c000a95c:	e51b300c 	ldr	r3, [fp, #-12]
c000a960:	e1a00003 	mov	r0, r3
c000a964:	e24bd004 	sub	sp, fp, #4
c000a968:	e8bd4800 	pop	{fp, lr}
c000a96c:	e12fff1e 	bx	lr

c000a970 <bitmap_contains>:
c000a970:	e92d4800 	push	{fp, lr}
c000a974:	e28db004 	add	fp, sp, #4
c000a978:	e24dd018 	sub	sp, sp, #24
c000a97c:	e50b0010 	str	r0, [fp, #-16]
c000a980:	e50b1014 	str	r1, [fp, #-20]
c000a984:	e50b2018 	str	r2, [fp, #-24]
c000a988:	e50b301c 	str	r3, [fp, #-28]
c000a98c:	e3a03000 	mov	r3, #0
c000a990:	e50b3008 	str	r3, [fp, #-8]
c000a994:	ea00000e 	b	c000a9d4 <bitmap_contains+0x64>
c000a998:	e51b2014 	ldr	r2, [fp, #-20]
c000a99c:	e51b3008 	ldr	r3, [fp, #-8]
c000a9a0:	e0823003 	add	r3, r2, r3
c000a9a4:	e51b0010 	ldr	r0, [fp, #-16]
c000a9a8:	e1a01003 	mov	r1, r3
c000a9ac:	ebffff86 	bl	c000a7cc <bitmap_test>
c000a9b0:	e1a02000 	mov	r2, r0
c000a9b4:	e51b301c 	ldr	r3, [fp, #-28]
c000a9b8:	e1520003 	cmp	r2, r3
c000a9bc:	1a000001 	bne	c000a9c8 <bitmap_contains+0x58>
c000a9c0:	e3a03001 	mov	r3, #1
c000a9c4:	ea000007 	b	c000a9e8 <bitmap_contains+0x78>
c000a9c8:	e51b3008 	ldr	r3, [fp, #-8]
c000a9cc:	e2833001 	add	r3, r3, #1
c000a9d0:	e50b3008 	str	r3, [fp, #-8]
c000a9d4:	e51b2008 	ldr	r2, [fp, #-8]
c000a9d8:	e51b3018 	ldr	r3, [fp, #-24]
c000a9dc:	e1520003 	cmp	r2, r3
c000a9e0:	3affffec 	bcc	c000a998 <bitmap_contains+0x28>
c000a9e4:	e3a03000 	mov	r3, #0
c000a9e8:	e1a00003 	mov	r0, r3
c000a9ec:	e24bd004 	sub	sp, fp, #4
c000a9f0:	e8bd4800 	pop	{fp, lr}
c000a9f4:	e12fff1e 	bx	lr

c000a9f8 <bitmap_any>:
c000a9f8:	e92d4800 	push	{fp, lr}
c000a9fc:	e28db004 	add	fp, sp, #4
c000aa00:	e24dd010 	sub	sp, sp, #16
c000aa04:	e50b0008 	str	r0, [fp, #-8]
c000aa08:	e50b100c 	str	r1, [fp, #-12]
c000aa0c:	e50b2010 	str	r2, [fp, #-16]
c000aa10:	e51b0008 	ldr	r0, [fp, #-8]
c000aa14:	e51b100c 	ldr	r1, [fp, #-12]
c000aa18:	e51b2010 	ldr	r2, [fp, #-16]
c000aa1c:	e3a03001 	mov	r3, #1
c000aa20:	ebffffd2 	bl	c000a970 <bitmap_contains>
c000aa24:	e1a03000 	mov	r3, r0
c000aa28:	e1a00003 	mov	r0, r3
c000aa2c:	e24bd004 	sub	sp, fp, #4
c000aa30:	e8bd4800 	pop	{fp, lr}
c000aa34:	e12fff1e 	bx	lr

c000aa38 <bitmap_none>:
c000aa38:	e92d4800 	push	{fp, lr}
c000aa3c:	e28db004 	add	fp, sp, #4
c000aa40:	e24dd010 	sub	sp, sp, #16
c000aa44:	e50b0008 	str	r0, [fp, #-8]
c000aa48:	e50b100c 	str	r1, [fp, #-12]
c000aa4c:	e50b2010 	str	r2, [fp, #-16]
c000aa50:	e51b0008 	ldr	r0, [fp, #-8]
c000aa54:	e51b100c 	ldr	r1, [fp, #-12]
c000aa58:	e51b2010 	ldr	r2, [fp, #-16]
c000aa5c:	e3a03001 	mov	r3, #1
c000aa60:	ebffffc2 	bl	c000a970 <bitmap_contains>
c000aa64:	e1a03000 	mov	r3, r0
c000aa68:	e3530000 	cmp	r3, #0
c000aa6c:	13a03000 	movne	r3, #0
c000aa70:	03a03001 	moveq	r3, #1
c000aa74:	e20330ff 	and	r3, r3, #255	; 0xff
c000aa78:	e1a00003 	mov	r0, r3
c000aa7c:	e24bd004 	sub	sp, fp, #4
c000aa80:	e8bd4800 	pop	{fp, lr}
c000aa84:	e12fff1e 	bx	lr

c000aa88 <bitmap_all>:
c000aa88:	e92d4800 	push	{fp, lr}
c000aa8c:	e28db004 	add	fp, sp, #4
c000aa90:	e24dd010 	sub	sp, sp, #16
c000aa94:	e50b0008 	str	r0, [fp, #-8]
c000aa98:	e50b100c 	str	r1, [fp, #-12]
c000aa9c:	e50b2010 	str	r2, [fp, #-16]
c000aaa0:	e51b0008 	ldr	r0, [fp, #-8]
c000aaa4:	e51b100c 	ldr	r1, [fp, #-12]
c000aaa8:	e51b2010 	ldr	r2, [fp, #-16]
c000aaac:	e3a03000 	mov	r3, #0
c000aab0:	ebffffae 	bl	c000a970 <bitmap_contains>
c000aab4:	e1a03000 	mov	r3, r0
c000aab8:	e3530000 	cmp	r3, #0
c000aabc:	13a03000 	movne	r3, #0
c000aac0:	03a03001 	moveq	r3, #1
c000aac4:	e20330ff 	and	r3, r3, #255	; 0xff
c000aac8:	e1a00003 	mov	r0, r3
c000aacc:	e24bd004 	sub	sp, fp, #4
c000aad0:	e8bd4800 	pop	{fp, lr}
c000aad4:	e12fff1e 	bx	lr

c000aad8 <bitmap_scan>:
c000aad8:	e92d4800 	push	{fp, lr}
c000aadc:	e28db004 	add	fp, sp, #4
c000aae0:	e24dd018 	sub	sp, sp, #24
c000aae4:	e50b0010 	str	r0, [fp, #-16]
c000aae8:	e50b1014 	str	r1, [fp, #-20]
c000aaec:	e50b2018 	str	r2, [fp, #-24]
c000aaf0:	e50b301c 	str	r3, [fp, #-28]
c000aaf4:	e51b3010 	ldr	r3, [fp, #-16]
c000aaf8:	e5932000 	ldr	r2, [r3]
c000aafc:	e51b3018 	ldr	r3, [fp, #-24]
c000ab00:	e1520003 	cmp	r2, r3
c000ab04:	3a00001c 	bcc	c000ab7c <bitmap_scan+0xa4>
c000ab08:	e51b3010 	ldr	r3, [fp, #-16]
c000ab0c:	e5932000 	ldr	r2, [r3]
c000ab10:	e51b3018 	ldr	r3, [fp, #-24]
c000ab14:	e0633002 	rsb	r3, r3, r2
c000ab18:	e50b300c 	str	r3, [fp, #-12]
c000ab1c:	e51b3014 	ldr	r3, [fp, #-20]
c000ab20:	e50b3008 	str	r3, [fp, #-8]
c000ab24:	ea000010 	b	c000ab6c <bitmap_scan+0x94>
c000ab28:	e51b301c 	ldr	r3, [fp, #-28]
c000ab2c:	e3530000 	cmp	r3, #0
c000ab30:	13a03000 	movne	r3, #0
c000ab34:	03a03001 	moveq	r3, #1
c000ab38:	e20330ff 	and	r3, r3, #255	; 0xff
c000ab3c:	e51b0010 	ldr	r0, [fp, #-16]
c000ab40:	e51b1008 	ldr	r1, [fp, #-8]
c000ab44:	e51b2018 	ldr	r2, [fp, #-24]
c000ab48:	ebffff88 	bl	c000a970 <bitmap_contains>
c000ab4c:	e1a03000 	mov	r3, r0
c000ab50:	e3530000 	cmp	r3, #0
c000ab54:	1a000001 	bne	c000ab60 <bitmap_scan+0x88>
c000ab58:	e51b3008 	ldr	r3, [fp, #-8]
c000ab5c:	ea000007 	b	c000ab80 <bitmap_scan+0xa8>
c000ab60:	e51b3008 	ldr	r3, [fp, #-8]
c000ab64:	e2833001 	add	r3, r3, #1
c000ab68:	e50b3008 	str	r3, [fp, #-8]
c000ab6c:	e51b2008 	ldr	r2, [fp, #-8]
c000ab70:	e51b300c 	ldr	r3, [fp, #-12]
c000ab74:	e1520003 	cmp	r2, r3
c000ab78:	9affffea 	bls	c000ab28 <bitmap_scan+0x50>
c000ab7c:	e3e03000 	mvn	r3, #0
c000ab80:	e1a00003 	mov	r0, r3
c000ab84:	e24bd004 	sub	sp, fp, #4
c000ab88:	e8bd4800 	pop	{fp, lr}
c000ab8c:	e12fff1e 	bx	lr

c000ab90 <bitmap_scan_and_flip>:
c000ab90:	e92d4800 	push	{fp, lr}
c000ab94:	e28db004 	add	fp, sp, #4
c000ab98:	e24dd018 	sub	sp, sp, #24
c000ab9c:	e50b0010 	str	r0, [fp, #-16]
c000aba0:	e50b1014 	str	r1, [fp, #-20]
c000aba4:	e50b2018 	str	r2, [fp, #-24]
c000aba8:	e50b301c 	str	r3, [fp, #-28]
c000abac:	e51b0010 	ldr	r0, [fp, #-16]
c000abb0:	e51b1014 	ldr	r1, [fp, #-20]
c000abb4:	e51b2018 	ldr	r2, [fp, #-24]
c000abb8:	e51b301c 	ldr	r3, [fp, #-28]
c000abbc:	ebffffc5 	bl	c000aad8 <bitmap_scan>
c000abc0:	e50b0008 	str	r0, [fp, #-8]
c000abc4:	e51b3008 	ldr	r3, [fp, #-8]
c000abc8:	e3730001 	cmn	r3, #1
c000abcc:	0a000008 	beq	c000abf4 <bitmap_scan_and_flip+0x64>
c000abd0:	e51b301c 	ldr	r3, [fp, #-28]
c000abd4:	e3530000 	cmp	r3, #0
c000abd8:	13a03000 	movne	r3, #0
c000abdc:	03a03001 	moveq	r3, #1
c000abe0:	e20330ff 	and	r3, r3, #255	; 0xff
c000abe4:	e51b0010 	ldr	r0, [fp, #-16]
c000abe8:	e51b1008 	ldr	r1, [fp, #-8]
c000abec:	e51b2018 	ldr	r2, [fp, #-24]
c000abf0:	ebffff1e 	bl	c000a870 <bitmap_set_multiple>
c000abf4:	e51b3008 	ldr	r3, [fp, #-8]
c000abf8:	e1a00003 	mov	r0, r3
c000abfc:	e24bd004 	sub	sp, fp, #4
c000ac00:	e8bd4800 	pop	{fp, lr}
c000ac04:	e12fff1e 	bx	lr

c000ac08 <mmio_write>:
c000ac08:	e52db004 	push	{fp}		; (str fp, [sp, #-4]!)
c000ac0c:	e28db000 	add	fp, sp, #0
c000ac10:	e24dd00c 	sub	sp, sp, #12
c000ac14:	e50b0008 	str	r0, [fp, #-8]
c000ac18:	e50b100c 	str	r1, [fp, #-12]
c000ac1c:	e51b3008 	ldr	r3, [fp, #-8]
c000ac20:	e51b200c 	ldr	r2, [fp, #-12]
c000ac24:	e5832000 	str	r2, [r3]
c000ac28:	e24bd000 	sub	sp, fp, #0
c000ac2c:	e49db004 	pop	{fp}		; (ldr fp, [sp], #4)
c000ac30:	e12fff1e 	bx	lr

c000ac34 <mmio_read>:
c000ac34:	e52db004 	push	{fp}		; (str fp, [sp, #-4]!)
c000ac38:	e28db000 	add	fp, sp, #0
c000ac3c:	e24dd00c 	sub	sp, sp, #12
c000ac40:	e50b0008 	str	r0, [fp, #-8]
c000ac44:	e51b3008 	ldr	r3, [fp, #-8]
c000ac48:	e5933000 	ldr	r3, [r3]
c000ac4c:	e1a00003 	mov	r0, r3
c000ac50:	e24bd000 	sub	sp, fp, #0
c000ac54:	e49db004 	pop	{fp}		; (ldr fp, [sp], #4)
c000ac58:	e12fff1e 	bx	lr

c000ac5c <uart_init>:
c000ac5c:	e92d4800 	push	{fp, lr}
c000ac60:	e28db004 	add	fp, sp, #4
c000ac64:	e24dd008 	sub	sp, sp, #8
c000ac68:	e59f00f4 	ldr	r0, [pc, #244]	; c000ad64 <uart_init+0x108>
c000ac6c:	e3a01202 	mov	r1, #536870912	; 0x20000000
c000ac70:	ebffffe4 	bl	c000ac08 <mmio_write>
c000ac74:	e59f00ec 	ldr	r0, [pc, #236]	; c000ad68 <uart_init+0x10c>
c000ac78:	e3a01001 	mov	r1, #1
c000ac7c:	ebffffe1 	bl	c000ac08 <mmio_write>
c000ac80:	e59f00e4 	ldr	r0, [pc, #228]	; c000ad6c <uart_init+0x110>
c000ac84:	e3a01000 	mov	r1, #0
c000ac88:	ebffffde 	bl	c000ac08 <mmio_write>
c000ac8c:	e59f00dc 	ldr	r0, [pc, #220]	; c000ad70 <uart_init+0x114>
c000ac90:	e3a01000 	mov	r1, #0
c000ac94:	ebffffdb 	bl	c000ac08 <mmio_write>
c000ac98:	e59f00d4 	ldr	r0, [pc, #212]	; c000ad74 <uart_init+0x118>
c000ac9c:	e3a01003 	mov	r1, #3
c000aca0:	ebffffd8 	bl	c000ac08 <mmio_write>
c000aca4:	e59f00cc 	ldr	r0, [pc, #204]	; c000ad78 <uart_init+0x11c>
c000aca8:	e3a01000 	mov	r1, #0
c000acac:	ebffffd5 	bl	c000ac08 <mmio_write>
c000acb0:	e59f00b4 	ldr	r0, [pc, #180]	; c000ad6c <uart_init+0x110>
c000acb4:	e3a01005 	mov	r1, #5
c000acb8:	ebffffd2 	bl	c000ac08 <mmio_write>
c000acbc:	e59f00b8 	ldr	r0, [pc, #184]	; c000ad7c <uart_init+0x120>
c000acc0:	e3a010c6 	mov	r1, #198	; 0xc6
c000acc4:	ebffffcf 	bl	c000ac08 <mmio_write>
c000acc8:	e59f00b0 	ldr	r0, [pc, #176]	; c000ad80 <uart_init+0x124>
c000accc:	e59f10b0 	ldr	r1, [pc, #176]	; c000ad84 <uart_init+0x128>
c000acd0:	ebffffcc 	bl	c000ac08 <mmio_write>
c000acd4:	e59f00ac 	ldr	r0, [pc, #172]	; c000ad88 <uart_init+0x12c>
c000acd8:	ebffffd5 	bl	c000ac34 <mmio_read>
c000acdc:	e50b0008 	str	r0, [fp, #-8]
c000ace0:	e51b3008 	ldr	r3, [fp, #-8]
c000ace4:	e3c33a07 	bic	r3, r3, #28672	; 0x7000
c000ace8:	e50b3008 	str	r3, [fp, #-8]
c000acec:	e51b3008 	ldr	r3, [fp, #-8]
c000acf0:	e3833a02 	orr	r3, r3, #8192	; 0x2000
c000acf4:	e50b3008 	str	r3, [fp, #-8]
c000acf8:	e51b3008 	ldr	r3, [fp, #-8]
c000acfc:	e3c3390e 	bic	r3, r3, #229376	; 0x38000
c000ad00:	e50b3008 	str	r3, [fp, #-8]
c000ad04:	e51b3008 	ldr	r3, [fp, #-8]
c000ad08:	e3833801 	orr	r3, r3, #65536	; 0x10000
c000ad0c:	e50b3008 	str	r3, [fp, #-8]
c000ad10:	e59f0070 	ldr	r0, [pc, #112]	; c000ad88 <uart_init+0x12c>
c000ad14:	e51b1008 	ldr	r1, [fp, #-8]
c000ad18:	ebffffba 	bl	c000ac08 <mmio_write>
c000ad1c:	e59f0068 	ldr	r0, [pc, #104]	; c000ad8c <uart_init+0x130>
c000ad20:	e3a01000 	mov	r1, #0
c000ad24:	ebffffb7 	bl	c000ac08 <mmio_write>
c000ad28:	e59f0060 	ldr	r0, [pc, #96]	; c000ad90 <uart_init+0x134>
c000ad2c:	e3a01903 	mov	r1, #49152	; 0xc000
c000ad30:	ebffffb4 	bl	c000ac08 <mmio_write>
c000ad34:	e59f0054 	ldr	r0, [pc, #84]	; c000ad90 <uart_init+0x134>
c000ad38:	e3a01000 	mov	r1, #0
c000ad3c:	ebffffb1 	bl	c000ac08 <mmio_write>
c000ad40:	e59f0028 	ldr	r0, [pc, #40]	; c000ad70 <uart_init+0x114>
c000ad44:	e3a01003 	mov	r1, #3
c000ad48:	ebffffae 	bl	c000ac08 <mmio_write>
c000ad4c:	e59f0040 	ldr	r0, [pc, #64]	; c000ad94 <uart_init+0x138>
c000ad50:	e3a01202 	mov	r1, #536870912	; 0x20000000
c000ad54:	ebffffab 	bl	c000ac08 <mmio_write>
c000ad58:	e24bd004 	sub	sp, fp, #4
c000ad5c:	e8bd4800 	pop	{fp, lr}
c000ad60:	e12fff1e 	bx	lr
c000ad64:	c100b21c 	tstgt	r0, ip, lsl r2
c000ad68:	c1215004 	teqgt	r1, r4
c000ad6c:	c1215044 	teqgt	r1, r4, asr #32
c000ad70:	c1215060 	teqgt	r1, r0, rrx
c000ad74:	c121504c 	teqgt	r1, ip, asr #32
c000ad78:	c1215050 	qsubgt	r5, r0, r1
c000ad7c:	c1215048 	teqgt	r1, r8, asr #32
c000ad80:	c1215068 	teqgt	r1, r8, rrx
c000ad84:	00000cb6 			; <UNDEFINED> instruction: 0x00000cb6
c000ad88:	c1200004 	teqgt	r0, r4
c000ad8c:	c1200094 			; <UNDEFINED> instruction: 0xc1200094
c000ad90:	c1200098 			; <UNDEFINED> instruction: 0xc1200098
c000ad94:	c100b210 	tstgt	r0, r0, lsl r2

c000ad98 <uart_putc>:
c000ad98:	e92d4800 	push	{fp, lr}
c000ad9c:	e28db004 	add	fp, sp, #4
c000ada0:	e24dd008 	sub	sp, sp, #8
c000ada4:	e50b0008 	str	r0, [fp, #-8]
c000ada8:	e59f0030 	ldr	r0, [pc, #48]	; c000ade0 <uart_putc+0x48>
c000adac:	ebffffa0 	bl	c000ac34 <mmio_read>
c000adb0:	e1a03000 	mov	r3, r0
c000adb4:	e2033020 	and	r3, r3, #32
c000adb8:	e3530000 	cmp	r3, #0
c000adbc:	0a000000 	beq	c000adc4 <uart_putc+0x2c>
c000adc0:	ea000000 	b	c000adc8 <uart_putc+0x30>
c000adc4:	eafffff7 	b	c000ada8 <uart_putc+0x10>
c000adc8:	e59f0014 	ldr	r0, [pc, #20]	; c000ade4 <uart_putc+0x4c>
c000adcc:	e51b1008 	ldr	r1, [fp, #-8]
c000add0:	ebffff8c 	bl	c000ac08 <mmio_write>
c000add4:	e24bd004 	sub	sp, fp, #4
c000add8:	e8bd4800 	pop	{fp, lr}
c000addc:	e12fff1e 	bx	lr
c000ade0:	c1215054 	qsubgt	r5, r4, r1
c000ade4:	c1215040 	teqgt	r1, r0, asr #32

c000ade8 <uart_getc>:
c000ade8:	e92d4800 	push	{fp, lr}
c000adec:	e28db004 	add	fp, sp, #4
c000adf0:	e59f0038 	ldr	r0, [pc, #56]	; c000ae30 <uart_getc+0x48>
c000adf4:	ebffff8e 	bl	c000ac34 <mmio_read>
c000adf8:	e1a03000 	mov	r3, r0
c000adfc:	e2033001 	and	r3, r3, #1
c000ae00:	e3530000 	cmp	r3, #0
c000ae04:	0a000000 	beq	c000ae0c <uart_getc+0x24>
c000ae08:	ea000000 	b	c000ae10 <uart_getc+0x28>
c000ae0c:	eafffff7 	b	c000adf0 <uart_getc+0x8>
c000ae10:	e59f001c 	ldr	r0, [pc, #28]	; c000ae34 <uart_getc+0x4c>
c000ae14:	ebffff86 	bl	c000ac34 <mmio_read>
c000ae18:	e1a03000 	mov	r3, r0
c000ae1c:	e20330ff 	and	r3, r3, #255	; 0xff
c000ae20:	e1a00003 	mov	r0, r3
c000ae24:	e24bd004 	sub	sp, fp, #4
c000ae28:	e8bd4800 	pop	{fp, lr}
c000ae2c:	e12fff1e 	bx	lr
c000ae30:	c1215054 	qsubgt	r5, r4, r1
c000ae34:	c1215040 	teqgt	r1, r0, asr #32

c000ae38 <uart_write>:
c000ae38:	e92d4800 	push	{fp, lr}
c000ae3c:	e28db004 	add	fp, sp, #4
c000ae40:	e24dd010 	sub	sp, sp, #16
c000ae44:	e50b0010 	str	r0, [fp, #-16]
c000ae48:	e50b1014 	str	r1, [fp, #-20]
c000ae4c:	e3a03000 	mov	r3, #0
c000ae50:	e50b3008 	str	r3, [fp, #-8]
c000ae54:	ea000008 	b	c000ae7c <uart_write+0x44>
c000ae58:	e51b3008 	ldr	r3, [fp, #-8]
c000ae5c:	e51b2010 	ldr	r2, [fp, #-16]
c000ae60:	e0823003 	add	r3, r2, r3
c000ae64:	e5d33000 	ldrb	r3, [r3]
c000ae68:	e1a00003 	mov	r0, r3
c000ae6c:	ebffffc9 	bl	c000ad98 <uart_putc>
c000ae70:	e51b3008 	ldr	r3, [fp, #-8]
c000ae74:	e2833001 	add	r3, r3, #1
c000ae78:	e50b3008 	str	r3, [fp, #-8]
c000ae7c:	e51b2008 	ldr	r2, [fp, #-8]
c000ae80:	e51b3014 	ldr	r3, [fp, #-20]
c000ae84:	e1520003 	cmp	r2, r3
c000ae88:	bafffff2 	blt	c000ae58 <uart_write+0x20>
c000ae8c:	e24bd004 	sub	sp, fp, #4
c000ae90:	e8bd4800 	pop	{fp, lr}
c000ae94:	e12fff1e 	bx	lr

c000ae98 <uart_puts>:
c000ae98:	e92d4800 	push	{fp, lr}
c000ae9c:	e28db004 	add	fp, sp, #4
c000aea0:	e24dd008 	sub	sp, sp, #8
c000aea4:	e50b0008 	str	r0, [fp, #-8]
c000aea8:	e51b0008 	ldr	r0, [fp, #-8]
c000aeac:	eb00031d 	bl	c000bb28 <strlen>
c000aeb0:	e1a03000 	mov	r3, r0
c000aeb4:	e51b0008 	ldr	r0, [fp, #-8]
c000aeb8:	e1a01003 	mov	r1, r3
c000aebc:	ebffffdd 	bl	c000ae38 <uart_write>
c000aec0:	e24bd004 	sub	sp, fp, #4
c000aec4:	e8bd4800 	pop	{fp, lr}
c000aec8:	e12fff1e 	bx	lr

c000aecc <IntToString>:
c000aecc:	e52db004 	push	{fp}		; (str fp, [sp, #-4]!)
c000aed0:	e28db000 	add	fp, sp, #0
c000aed4:	e24dd014 	sub	sp, sp, #20
c000aed8:	e50b0010 	str	r0, [fp, #-16]
c000aedc:	e50b1014 	str	r1, [fp, #-20]
c000aee0:	e3a03000 	mov	r3, #0
c000aee4:	e50b3008 	str	r3, [fp, #-8]
c000aee8:	e3a03000 	mov	r3, #0
c000aeec:	e50b3008 	str	r3, [fp, #-8]
c000aef0:	ea000018 	b	c000af58 <IntToString+0x8c>
c000aef4:	e51b3008 	ldr	r3, [fp, #-8]
c000aef8:	e2633003 	rsb	r3, r3, #3
c000aefc:	e51b2014 	ldr	r2, [fp, #-20]
c000af00:	e0820003 	add	r0, r2, r3
c000af04:	e51b1010 	ldr	r1, [fp, #-16]
c000af08:	e59f3060 	ldr	r3, [pc, #96]	; c000af70 <IntToString+0xa4>
c000af0c:	e0832391 	umull	r2, r3, r1, r3
c000af10:	e1a021a3 	lsr	r2, r3, #3
c000af14:	e1a03002 	mov	r3, r2
c000af18:	e1a03103 	lsl	r3, r3, #2
c000af1c:	e0833002 	add	r3, r3, r2
c000af20:	e1a03083 	lsl	r3, r3, #1
c000af24:	e0632001 	rsb	r2, r3, r1
c000af28:	e20230ff 	and	r3, r2, #255	; 0xff
c000af2c:	e2833030 	add	r3, r3, #48	; 0x30
c000af30:	e20330ff 	and	r3, r3, #255	; 0xff
c000af34:	e5c03000 	strb	r3, [r0]
c000af38:	e51b2010 	ldr	r2, [fp, #-16]
c000af3c:	e59f302c 	ldr	r3, [pc, #44]	; c000af70 <IntToString+0xa4>
c000af40:	e0831392 	umull	r1, r3, r2, r3
c000af44:	e1a031a3 	lsr	r3, r3, #3
c000af48:	e50b3010 	str	r3, [fp, #-16]
c000af4c:	e51b3008 	ldr	r3, [fp, #-8]
c000af50:	e2833001 	add	r3, r3, #1
c000af54:	e50b3008 	str	r3, [fp, #-8]
c000af58:	e51b3008 	ldr	r3, [fp, #-8]
c000af5c:	e3530003 	cmp	r3, #3
c000af60:	daffffe3 	ble	c000aef4 <IntToString+0x28>
c000af64:	e24bd000 	sub	sp, fp, #0
c000af68:	e49db004 	pop	{fp}		; (ldr fp, [sp], #4)
c000af6c:	e12fff1e 	bx	lr
c000af70:	cccccccd 	stclgt	12, cr12, [ip], {205}	; 0xcd

c000af74 <HexToString>:
c000af74:	e52db004 	push	{fp}		; (str fp, [sp, #-4]!)
c000af78:	e28db000 	add	fp, sp, #0
c000af7c:	e24dd014 	sub	sp, sp, #20
c000af80:	e50b0010 	str	r0, [fp, #-16]
c000af84:	e50b1014 	str	r1, [fp, #-20]
c000af88:	e3a03000 	mov	r3, #0
c000af8c:	e50b3008 	str	r3, [fp, #-8]
c000af90:	e51b3014 	ldr	r3, [fp, #-20]
c000af94:	e3a02030 	mov	r2, #48	; 0x30
c000af98:	e5c32000 	strb	r2, [r3]
c000af9c:	e51b3014 	ldr	r3, [fp, #-20]
c000afa0:	e2833001 	add	r3, r3, #1
c000afa4:	e3a02078 	mov	r2, #120	; 0x78
c000afa8:	e5c32000 	strb	r2, [r3]
c000afac:	e3a03009 	mov	r3, #9
c000afb0:	e50b3008 	str	r3, [fp, #-8]
c000afb4:	ea00001c 	b	c000b02c <HexToString+0xb8>
c000afb8:	e51b3010 	ldr	r3, [fp, #-16]
c000afbc:	e203300f 	and	r3, r3, #15
c000afc0:	e50b300c 	str	r3, [fp, #-12]
c000afc4:	e51b300c 	ldr	r3, [fp, #-12]
c000afc8:	e3530009 	cmp	r3, #9
c000afcc:	8a000008 	bhi	c000aff4 <HexToString+0x80>
c000afd0:	e51b3008 	ldr	r3, [fp, #-8]
c000afd4:	e51b2014 	ldr	r2, [fp, #-20]
c000afd8:	e0823003 	add	r3, r2, r3
c000afdc:	e51b200c 	ldr	r2, [fp, #-12]
c000afe0:	e20220ff 	and	r2, r2, #255	; 0xff
c000afe4:	e2822030 	add	r2, r2, #48	; 0x30
c000afe8:	e20220ff 	and	r2, r2, #255	; 0xff
c000afec:	e5c32000 	strb	r2, [r3]
c000aff0:	ea000007 	b	c000b014 <HexToString+0xa0>
c000aff4:	e51b3008 	ldr	r3, [fp, #-8]
c000aff8:	e51b2014 	ldr	r2, [fp, #-20]
c000affc:	e0823003 	add	r3, r2, r3
c000b000:	e51b200c 	ldr	r2, [fp, #-12]
c000b004:	e20220ff 	and	r2, r2, #255	; 0xff
c000b008:	e2822037 	add	r2, r2, #55	; 0x37
c000b00c:	e20220ff 	and	r2, r2, #255	; 0xff
c000b010:	e5c32000 	strb	r2, [r3]
c000b014:	e51b3010 	ldr	r3, [fp, #-16]
c000b018:	e1a03223 	lsr	r3, r3, #4
c000b01c:	e50b3010 	str	r3, [fp, #-16]
c000b020:	e51b3008 	ldr	r3, [fp, #-8]
c000b024:	e2433001 	sub	r3, r3, #1
c000b028:	e50b3008 	str	r3, [fp, #-8]
c000b02c:	e51b3008 	ldr	r3, [fp, #-8]
c000b030:	e3530001 	cmp	r3, #1
c000b034:	caffffdf 	bgt	c000afb8 <HexToString+0x44>
c000b038:	e24bd000 	sub	sp, fp, #0
c000b03c:	e49db004 	pop	{fp}		; (ldr fp, [sp], #4)
c000b040:	e12fff1e 	bx	lr

c000b044 <printfContext>:
c000b044:	e92d4800 	push	{fp, lr}
c000b048:	e28db004 	add	fp, sp, #4
c000b04c:	e24dd010 	sub	sp, sp, #16
c000b050:	e50b0010 	str	r0, [fp, #-16]
c000b054:	e59f32b8 	ldr	r3, [pc, #696]	; c000b314 <printfContext+0x2d0>
c000b058:	e50b3008 	str	r3, [fp, #-8]
c000b05c:	e51b3010 	ldr	r3, [fp, #-16]
c000b060:	e5933000 	ldr	r3, [r3]
c000b064:	e1a00003 	mov	r0, r3
c000b068:	e51b1008 	ldr	r1, [fp, #-8]
c000b06c:	ebffffc0 	bl	c000af74 <HexToString>
c000b070:	e59f02a0 	ldr	r0, [pc, #672]	; c000b318 <printfContext+0x2d4>
c000b074:	ebffff87 	bl	c000ae98 <uart_puts>
c000b078:	e51b0008 	ldr	r0, [fp, #-8]
c000b07c:	ebffff85 	bl	c000ae98 <uart_puts>
c000b080:	e51b3010 	ldr	r3, [fp, #-16]
c000b084:	e5933004 	ldr	r3, [r3, #4]
c000b088:	e1a00003 	mov	r0, r3
c000b08c:	e51b1008 	ldr	r1, [fp, #-8]
c000b090:	ebffffb7 	bl	c000af74 <HexToString>
c000b094:	e59f0280 	ldr	r0, [pc, #640]	; c000b31c <printfContext+0x2d8>
c000b098:	ebffff7e 	bl	c000ae98 <uart_puts>
c000b09c:	e51b0008 	ldr	r0, [fp, #-8]
c000b0a0:	ebffff7c 	bl	c000ae98 <uart_puts>
c000b0a4:	e51b3010 	ldr	r3, [fp, #-16]
c000b0a8:	e5933008 	ldr	r3, [r3, #8]
c000b0ac:	e1a00003 	mov	r0, r3
c000b0b0:	e51b1008 	ldr	r1, [fp, #-8]
c000b0b4:	ebffffae 	bl	c000af74 <HexToString>
c000b0b8:	e59f0260 	ldr	r0, [pc, #608]	; c000b320 <printfContext+0x2dc>
c000b0bc:	ebffff75 	bl	c000ae98 <uart_puts>
c000b0c0:	e51b0008 	ldr	r0, [fp, #-8]
c000b0c4:	ebffff73 	bl	c000ae98 <uart_puts>
c000b0c8:	e51b3010 	ldr	r3, [fp, #-16]
c000b0cc:	e593300c 	ldr	r3, [r3, #12]
c000b0d0:	e1a00003 	mov	r0, r3
c000b0d4:	e51b1008 	ldr	r1, [fp, #-8]
c000b0d8:	ebffffa5 	bl	c000af74 <HexToString>
c000b0dc:	e59f0240 	ldr	r0, [pc, #576]	; c000b324 <printfContext+0x2e0>
c000b0e0:	ebffff6c 	bl	c000ae98 <uart_puts>
c000b0e4:	e51b0008 	ldr	r0, [fp, #-8]
c000b0e8:	ebffff6a 	bl	c000ae98 <uart_puts>
c000b0ec:	e51b3010 	ldr	r3, [fp, #-16]
c000b0f0:	e5933010 	ldr	r3, [r3, #16]
c000b0f4:	e1a00003 	mov	r0, r3
c000b0f8:	e51b1008 	ldr	r1, [fp, #-8]
c000b0fc:	ebffff9c 	bl	c000af74 <HexToString>
c000b100:	e59f0220 	ldr	r0, [pc, #544]	; c000b328 <printfContext+0x2e4>
c000b104:	ebffff63 	bl	c000ae98 <uart_puts>
c000b108:	e51b0008 	ldr	r0, [fp, #-8]
c000b10c:	ebffff61 	bl	c000ae98 <uart_puts>
c000b110:	e51b3010 	ldr	r3, [fp, #-16]
c000b114:	e5933014 	ldr	r3, [r3, #20]
c000b118:	e1a00003 	mov	r0, r3
c000b11c:	e51b1008 	ldr	r1, [fp, #-8]
c000b120:	ebffff93 	bl	c000af74 <HexToString>
c000b124:	e59f0200 	ldr	r0, [pc, #512]	; c000b32c <printfContext+0x2e8>
c000b128:	ebffff5a 	bl	c000ae98 <uart_puts>
c000b12c:	e51b0008 	ldr	r0, [fp, #-8]
c000b130:	ebffff58 	bl	c000ae98 <uart_puts>
c000b134:	e51b3010 	ldr	r3, [fp, #-16]
c000b138:	e5933018 	ldr	r3, [r3, #24]
c000b13c:	e1a00003 	mov	r0, r3
c000b140:	e51b1008 	ldr	r1, [fp, #-8]
c000b144:	ebffff8a 	bl	c000af74 <HexToString>
c000b148:	e59f01e0 	ldr	r0, [pc, #480]	; c000b330 <printfContext+0x2ec>
c000b14c:	ebffff51 	bl	c000ae98 <uart_puts>
c000b150:	e51b0008 	ldr	r0, [fp, #-8]
c000b154:	ebffff4f 	bl	c000ae98 <uart_puts>
c000b158:	e51b3010 	ldr	r3, [fp, #-16]
c000b15c:	e593301c 	ldr	r3, [r3, #28]
c000b160:	e1a00003 	mov	r0, r3
c000b164:	e51b1008 	ldr	r1, [fp, #-8]
c000b168:	ebffff81 	bl	c000af74 <HexToString>
c000b16c:	e59f01c0 	ldr	r0, [pc, #448]	; c000b334 <printfContext+0x2f0>
c000b170:	ebffff48 	bl	c000ae98 <uart_puts>
c000b174:	e51b0008 	ldr	r0, [fp, #-8]
c000b178:	ebffff46 	bl	c000ae98 <uart_puts>
c000b17c:	e51b3010 	ldr	r3, [fp, #-16]
c000b180:	e5933020 	ldr	r3, [r3, #32]
c000b184:	e1a00003 	mov	r0, r3
c000b188:	e51b1008 	ldr	r1, [fp, #-8]
c000b18c:	ebffff78 	bl	c000af74 <HexToString>
c000b190:	e59f01a0 	ldr	r0, [pc, #416]	; c000b338 <printfContext+0x2f4>
c000b194:	ebffff3f 	bl	c000ae98 <uart_puts>
c000b198:	e51b0008 	ldr	r0, [fp, #-8]
c000b19c:	ebffff3d 	bl	c000ae98 <uart_puts>
c000b1a0:	e51b3010 	ldr	r3, [fp, #-16]
c000b1a4:	e5933024 	ldr	r3, [r3, #36]	; 0x24
c000b1a8:	e1a00003 	mov	r0, r3
c000b1ac:	e51b1008 	ldr	r1, [fp, #-8]
c000b1b0:	ebffff6f 	bl	c000af74 <HexToString>
c000b1b4:	e59f0180 	ldr	r0, [pc, #384]	; c000b33c <printfContext+0x2f8>
c000b1b8:	ebffff36 	bl	c000ae98 <uart_puts>
c000b1bc:	e51b0008 	ldr	r0, [fp, #-8]
c000b1c0:	ebffff34 	bl	c000ae98 <uart_puts>
c000b1c4:	e51b3010 	ldr	r3, [fp, #-16]
c000b1c8:	e5933028 	ldr	r3, [r3, #40]	; 0x28
c000b1cc:	e1a00003 	mov	r0, r3
c000b1d0:	e51b1008 	ldr	r1, [fp, #-8]
c000b1d4:	ebffff66 	bl	c000af74 <HexToString>
c000b1d8:	e59f0160 	ldr	r0, [pc, #352]	; c000b340 <printfContext+0x2fc>
c000b1dc:	ebffff2d 	bl	c000ae98 <uart_puts>
c000b1e0:	e51b0008 	ldr	r0, [fp, #-8]
c000b1e4:	ebffff2b 	bl	c000ae98 <uart_puts>
c000b1e8:	e51b3010 	ldr	r3, [fp, #-16]
c000b1ec:	e593302c 	ldr	r3, [r3, #44]	; 0x2c
c000b1f0:	e1a00003 	mov	r0, r3
c000b1f4:	e51b1008 	ldr	r1, [fp, #-8]
c000b1f8:	ebffff5d 	bl	c000af74 <HexToString>
c000b1fc:	e59f0140 	ldr	r0, [pc, #320]	; c000b344 <printfContext+0x300>
c000b200:	ebffff24 	bl	c000ae98 <uart_puts>
c000b204:	e51b0008 	ldr	r0, [fp, #-8]
c000b208:	ebffff22 	bl	c000ae98 <uart_puts>
c000b20c:	e51b3010 	ldr	r3, [fp, #-16]
c000b210:	e5933030 	ldr	r3, [r3, #48]	; 0x30
c000b214:	e1a00003 	mov	r0, r3
c000b218:	e51b1008 	ldr	r1, [fp, #-8]
c000b21c:	ebffff54 	bl	c000af74 <HexToString>
c000b220:	e59f0120 	ldr	r0, [pc, #288]	; c000b348 <printfContext+0x304>
c000b224:	ebffff1b 	bl	c000ae98 <uart_puts>
c000b228:	e51b0008 	ldr	r0, [fp, #-8]
c000b22c:	ebffff19 	bl	c000ae98 <uart_puts>
c000b230:	e51b3010 	ldr	r3, [fp, #-16]
c000b234:	e5933034 	ldr	r3, [r3, #52]	; 0x34
c000b238:	e1a00003 	mov	r0, r3
c000b23c:	e51b1008 	ldr	r1, [fp, #-8]
c000b240:	ebffff4b 	bl	c000af74 <HexToString>
c000b244:	e59f0100 	ldr	r0, [pc, #256]	; c000b34c <printfContext+0x308>
c000b248:	ebffff12 	bl	c000ae98 <uart_puts>
c000b24c:	e51b0008 	ldr	r0, [fp, #-8]
c000b250:	ebffff10 	bl	c000ae98 <uart_puts>
c000b254:	e51b3010 	ldr	r3, [fp, #-16]
c000b258:	e5933038 	ldr	r3, [r3, #56]	; 0x38
c000b25c:	e1a00003 	mov	r0, r3
c000b260:	e51b1008 	ldr	r1, [fp, #-8]
c000b264:	ebffff42 	bl	c000af74 <HexToString>
c000b268:	e59f00e0 	ldr	r0, [pc, #224]	; c000b350 <printfContext+0x30c>
c000b26c:	ebffff09 	bl	c000ae98 <uart_puts>
c000b270:	e51b0008 	ldr	r0, [fp, #-8]
c000b274:	ebffff07 	bl	c000ae98 <uart_puts>
c000b278:	e51b3010 	ldr	r3, [fp, #-16]
c000b27c:	e593303c 	ldr	r3, [r3, #60]	; 0x3c
c000b280:	e1a00003 	mov	r0, r3
c000b284:	e51b1008 	ldr	r1, [fp, #-8]
c000b288:	ebffff39 	bl	c000af74 <HexToString>
c000b28c:	e59f00c0 	ldr	r0, [pc, #192]	; c000b354 <printfContext+0x310>
c000b290:	ebffff00 	bl	c000ae98 <uart_puts>
c000b294:	e51b0008 	ldr	r0, [fp, #-8]
c000b298:	ebfffefe 	bl	c000ae98 <uart_puts>
c000b29c:	e51b3010 	ldr	r3, [fp, #-16]
c000b2a0:	e5933040 	ldr	r3, [r3, #64]	; 0x40
c000b2a4:	e1a00003 	mov	r0, r3
c000b2a8:	e51b1008 	ldr	r1, [fp, #-8]
c000b2ac:	ebffff30 	bl	c000af74 <HexToString>
c000b2b0:	e59f00a0 	ldr	r0, [pc, #160]	; c000b358 <printfContext+0x314>
c000b2b4:	ebfffef7 	bl	c000ae98 <uart_puts>
c000b2b8:	e51b0008 	ldr	r0, [fp, #-8]
c000b2bc:	ebfffef5 	bl	c000ae98 <uart_puts>
c000b2c0:	e51b3010 	ldr	r3, [fp, #-16]
c000b2c4:	e5933044 	ldr	r3, [r3, #68]	; 0x44
c000b2c8:	e1a00003 	mov	r0, r3
c000b2cc:	e51b1008 	ldr	r1, [fp, #-8]
c000b2d0:	ebffff27 	bl	c000af74 <HexToString>
c000b2d4:	e59f0080 	ldr	r0, [pc, #128]	; c000b35c <printfContext+0x318>
c000b2d8:	ebfffeee 	bl	c000ae98 <uart_puts>
c000b2dc:	e51b0008 	ldr	r0, [fp, #-8]
c000b2e0:	ebfffeec 	bl	c000ae98 <uart_puts>
c000b2e4:	e51b3010 	ldr	r3, [fp, #-16]
c000b2e8:	e5933048 	ldr	r3, [r3, #72]	; 0x48
c000b2ec:	e1a00003 	mov	r0, r3
c000b2f0:	e51b1008 	ldr	r1, [fp, #-8]
c000b2f4:	ebffff1e 	bl	c000af74 <HexToString>
c000b2f8:	e59f0060 	ldr	r0, [pc, #96]	; c000b360 <printfContext+0x31c>
c000b2fc:	ebfffee5 	bl	c000ae98 <uart_puts>
c000b300:	e51b0008 	ldr	r0, [fp, #-8]
c000b304:	ebfffee3 	bl	c000ae98 <uart_puts>
c000b308:	e24bd004 	sub	sp, fp, #4
c000b30c:	e8bd4800 	pop	{fp, lr}
c000b310:	e12fff1e 	bx	lr
c000b314:	c000ed08 	andgt	lr, r0, r8, lsl #26
c000b318:	c000ed18 	andgt	lr, r0, r8, lsl sp
c000b31c:	c000ed24 	andgt	lr, r0, r4, lsr #26
c000b320:	c000ed30 	andgt	lr, r0, r0, lsr sp
c000b324:	c000ed3c 	andgt	lr, r0, ip, lsr sp
c000b328:	c000ed48 	andgt	lr, r0, r8, asr #26
c000b32c:	c000ed54 	andgt	lr, r0, r4, asr sp
c000b330:	c000ed60 	andgt	lr, r0, r0, ror #26
c000b334:	c000ed6c 	andgt	lr, r0, ip, ror #26
c000b338:	c000ed78 	andgt	lr, r0, r8, ror sp
c000b33c:	c000ed84 	andgt	lr, r0, r4, lsl #27
c000b340:	c000ed90 	mulgt	r0, r0, sp
c000b344:	c000ed9c 	mulgt	r0, ip, sp
c000b348:	c000eda8 	andgt	lr, r0, r8, lsr #27
c000b34c:	c000edb4 			; <UNDEFINED> instruction: 0xc000edb4
c000b350:	c000edc0 	andgt	lr, r0, r0, asr #27
c000b354:	c000edcc 	andgt	lr, r0, ip, asr #27
c000b358:	c000edd8 	ldrdgt	lr, [r0], -r8
c000b35c:	c000ede4 	andgt	lr, r0, r4, ror #27
c000b360:	c000edf0 	strdgt	lr, [r0], -r0

c000b364 <common_undef_handler>:
c000b364:	e92d4800 	push	{fp, lr}
c000b368:	e28db004 	add	fp, sp, #4
c000b36c:	e24dd008 	sub	sp, sp, #8
c000b370:	e3a00f7d 	mov	r0, #500	; 0x1f4
c000b374:	ebfff3a5 	bl	c0008210 <sleep>
c000b378:	e59f3014 	ldr	r3, [pc, #20]	; c000b394 <common_undef_handler+0x30>
c000b37c:	e50b3008 	str	r3, [fp, #-8]
c000b380:	e51b0008 	ldr	r0, [fp, #-8]
c000b384:	ebfffec3 	bl	c000ae98 <uart_puts>
c000b388:	e24bd004 	sub	sp, fp, #4
c000b38c:	e8bd4800 	pop	{fp, lr}
c000b390:	e12fff1e 	bx	lr
c000b394:	c000edfc 	strdgt	lr, [r0], -ip

c000b398 <common_swi_handler>:
c000b398:	e92d4800 	push	{fp, lr}
c000b39c:	e28db004 	add	fp, sp, #4
c000b3a0:	e24dd008 	sub	sp, sp, #8
c000b3a4:	e3a00f7d 	mov	r0, #500	; 0x1f4
c000b3a8:	ebfff398 	bl	c0008210 <sleep>
c000b3ac:	e59f3014 	ldr	r3, [pc, #20]	; c000b3c8 <common_swi_handler+0x30>
c000b3b0:	e50b3008 	str	r3, [fp, #-8]
c000b3b4:	e51b0008 	ldr	r0, [fp, #-8]
c000b3b8:	ebfffeb6 	bl	c000ae98 <uart_puts>
c000b3bc:	e24bd004 	sub	sp, fp, #4
c000b3c0:	e8bd4800 	pop	{fp, lr}
c000b3c4:	e12fff1e 	bx	lr
c000b3c8:	c000ee14 	andgt	lr, r0, r4, lsl lr

c000b3cc <common_pref_handler>:
c000b3cc:	e92d4800 	push	{fp, lr}
c000b3d0:	e28db004 	add	fp, sp, #4
c000b3d4:	e24dd010 	sub	sp, sp, #16
c000b3d8:	e50b0010 	str	r0, [fp, #-16]
c000b3dc:	e50b1014 	str	r1, [fp, #-20]
c000b3e0:	e59f305c 	ldr	r3, [pc, #92]	; c000b444 <common_pref_handler+0x78>
c000b3e4:	e50b3008 	str	r3, [fp, #-8]
c000b3e8:	e51b0008 	ldr	r0, [fp, #-8]
c000b3ec:	ebfffea9 	bl	c000ae98 <uart_puts>
c000b3f0:	e59f3050 	ldr	r3, [pc, #80]	; c000b448 <common_pref_handler+0x7c>
c000b3f4:	e50b300c 	str	r3, [fp, #-12]
c000b3f8:	e51b0010 	ldr	r0, [fp, #-16]
c000b3fc:	e51b100c 	ldr	r1, [fp, #-12]
c000b400:	ebfffedb 	bl	c000af74 <HexToString>
c000b404:	e59f0040 	ldr	r0, [pc, #64]	; c000b44c <common_pref_handler+0x80>
c000b408:	ebfffea2 	bl	c000ae98 <uart_puts>
c000b40c:	e51b000c 	ldr	r0, [fp, #-12]
c000b410:	ebfffea0 	bl	c000ae98 <uart_puts>
c000b414:	e51b0014 	ldr	r0, [fp, #-20]
c000b418:	e51b100c 	ldr	r1, [fp, #-12]
c000b41c:	ebfffed4 	bl	c000af74 <HexToString>
c000b420:	e59f0028 	ldr	r0, [pc, #40]	; c000b450 <common_pref_handler+0x84>
c000b424:	ebfffe9b 	bl	c000ae98 <uart_puts>
c000b428:	e51b000c 	ldr	r0, [fp, #-12]
c000b42c:	ebfffe99 	bl	c000ae98 <uart_puts>
c000b430:	e59f001c 	ldr	r0, [pc, #28]	; c000b454 <common_pref_handler+0x88>
c000b434:	ebfff375 	bl	c0008210 <sleep>
c000b438:	e24bd004 	sub	sp, fp, #4
c000b43c:	e8bd4800 	pop	{fp, lr}
c000b440:	e12fff1e 	bx	lr
c000b444:	c000ee28 	andgt	lr, r0, r8, lsr #28
c000b448:	c000ee40 	andgt	lr, r0, r0, asr #28
c000b44c:	c000ee50 	andgt	lr, r0, r0, asr lr
c000b450:	c000ee64 	andgt	lr, r0, r4, ror #28
c000b454:	00001388 	andeq	r1, r0, r8, lsl #7

c000b458 <common_Dabt_handler>:
c000b458:	e92d4800 	push	{fp, lr}
c000b45c:	e28db004 	add	fp, sp, #4
c000b460:	e24dd010 	sub	sp, sp, #16
c000b464:	e50b0010 	str	r0, [fp, #-16]
c000b468:	e50b1014 	str	r1, [fp, #-20]
c000b46c:	e59f305c 	ldr	r3, [pc, #92]	; c000b4d0 <common_Dabt_handler+0x78>
c000b470:	e50b3008 	str	r3, [fp, #-8]
c000b474:	e51b0008 	ldr	r0, [fp, #-8]
c000b478:	ebfffe86 	bl	c000ae98 <uart_puts>
c000b47c:	e59f3050 	ldr	r3, [pc, #80]	; c000b4d4 <common_Dabt_handler+0x7c>
c000b480:	e50b300c 	str	r3, [fp, #-12]
c000b484:	e51b0010 	ldr	r0, [fp, #-16]
c000b488:	e51b100c 	ldr	r1, [fp, #-12]
c000b48c:	ebfffeb8 	bl	c000af74 <HexToString>
c000b490:	e59f0040 	ldr	r0, [pc, #64]	; c000b4d8 <common_Dabt_handler+0x80>
c000b494:	ebfffe7f 	bl	c000ae98 <uart_puts>
c000b498:	e51b000c 	ldr	r0, [fp, #-12]
c000b49c:	ebfffe7d 	bl	c000ae98 <uart_puts>
c000b4a0:	e51b0014 	ldr	r0, [fp, #-20]
c000b4a4:	e51b100c 	ldr	r1, [fp, #-12]
c000b4a8:	ebfffeb1 	bl	c000af74 <HexToString>
c000b4ac:	e59f0028 	ldr	r0, [pc, #40]	; c000b4dc <common_Dabt_handler+0x84>
c000b4b0:	ebfffe78 	bl	c000ae98 <uart_puts>
c000b4b4:	e51b000c 	ldr	r0, [fp, #-12]
c000b4b8:	ebfffe76 	bl	c000ae98 <uart_puts>
c000b4bc:	e3a00f7d 	mov	r0, #500	; 0x1f4
c000b4c0:	ebfff352 	bl	c0008210 <sleep>
c000b4c4:	e24bd004 	sub	sp, fp, #4
c000b4c8:	e8bd4800 	pop	{fp, lr}
c000b4cc:	e12fff1e 	bx	lr
c000b4d0:	c000ee78 	andgt	lr, r0, r8, ror lr
c000b4d4:	c000ee40 	andgt	lr, r0, r0, asr #28
c000b4d8:	c000ee50 	andgt	lr, r0, r0, asr lr
c000b4dc:	c000ee64 	andgt	lr, r0, r4, ror #28

c000b4e0 <common_res_handler>:
c000b4e0:	e92d4800 	push	{fp, lr}
c000b4e4:	e28db004 	add	fp, sp, #4
c000b4e8:	e24dd008 	sub	sp, sp, #8
c000b4ec:	e3a00f7d 	mov	r0, #500	; 0x1f4
c000b4f0:	ebfff346 	bl	c0008210 <sleep>
c000b4f4:	e59f3014 	ldr	r3, [pc, #20]	; c000b510 <common_res_handler+0x30>
c000b4f8:	e50b3008 	str	r3, [fp, #-8]
c000b4fc:	e51b0008 	ldr	r0, [fp, #-8]
c000b500:	ebfffe64 	bl	c000ae98 <uart_puts>
c000b504:	e24bd004 	sub	sp, fp, #4
c000b508:	e8bd4800 	pop	{fp, lr}
c000b50c:	e12fff1e 	bx	lr
c000b510:	c000ee90 	mulgt	r0, r0, lr

c000b514 <common_irq_handler>:
c000b514:	e92d4800 	push	{fp, lr}
c000b518:	e28db004 	add	fp, sp, #4
c000b51c:	e24dd008 	sub	sp, sp, #8
c000b520:	e50b0008 	str	r0, [fp, #-8]
c000b524:	e59f302c 	ldr	r3, [pc, #44]	; c000b558 <common_irq_handler+0x44>
c000b528:	e5933000 	ldr	r3, [r3]
c000b52c:	e3a02000 	mov	r2, #0
c000b530:	e583200c 	str	r2, [r3, #12]
c000b534:	e59f0020 	ldr	r0, [pc, #32]	; c000b55c <common_irq_handler+0x48>
c000b538:	ebfffe56 	bl	c000ae98 <uart_puts>
c000b53c:	e51b0008 	ldr	r0, [fp, #-8]
c000b540:	ebfffebf 	bl	c000b044 <printfContext>
c000b544:	e59f0014 	ldr	r0, [pc, #20]	; c000b560 <common_irq_handler+0x4c>
c000b548:	ebfffe52 	bl	c000ae98 <uart_puts>
c000b54c:	e24bd004 	sub	sp, fp, #4
c000b550:	e8bd4800 	pop	{fp, lr}
c000b554:	e12fff1e 	bx	lr
c000b558:	c000f378 	andgt	pc, r0, r8, ror r3	; <UNPREDICTABLE>
c000b55c:	c000eea8 	andgt	lr, r0, r8, lsr #29
c000b560:	c000eebc 			; <UNDEFINED> instruction: 0xc000eebc

c000b564 <common_fiq_handler>:
c000b564:	e92d4800 	push	{fp, lr}
c000b568:	e28db004 	add	fp, sp, #4
c000b56c:	e24dd008 	sub	sp, sp, #8
c000b570:	e59f3014 	ldr	r3, [pc, #20]	; c000b58c <common_fiq_handler+0x28>
c000b574:	e50b3008 	str	r3, [fp, #-8]
c000b578:	e51b0008 	ldr	r0, [fp, #-8]
c000b57c:	ebfffe45 	bl	c000ae98 <uart_puts>
c000b580:	e24bd004 	sub	sp, fp, #4
c000b584:	e8bd4800 	pop	{fp, lr}
c000b588:	e12fff1e 	bx	lr
c000b58c:	c000eed4 	ldrdgt	lr, [r0], -r4

c000b590 <memcmp>:
c000b590:	e52db004 	push	{fp}		; (str fp, [sp, #-4]!)
c000b594:	e28db000 	add	fp, sp, #0
c000b598:	e24dd01c 	sub	sp, sp, #28
c000b59c:	e50b0010 	str	r0, [fp, #-16]
c000b5a0:	e50b1014 	str	r1, [fp, #-20]
c000b5a4:	e50b2018 	str	r2, [fp, #-24]
c000b5a8:	e51b3018 	ldr	r3, [fp, #-24]
c000b5ac:	e3530000 	cmp	r3, #0
c000b5b0:	1a000001 	bne	c000b5bc <memcmp+0x2c>
c000b5b4:	e51b3018 	ldr	r3, [fp, #-24]
c000b5b8:	ea000015 	b	c000b614 <memcmp+0x84>
c000b5bc:	e51b3010 	ldr	r3, [fp, #-16]
c000b5c0:	e50b3008 	str	r3, [fp, #-8]
c000b5c4:	e51b3014 	ldr	r3, [fp, #-20]
c000b5c8:	e50b300c 	str	r3, [fp, #-12]
c000b5cc:	e51b3008 	ldr	r3, [fp, #-8]
c000b5d0:	e2832001 	add	r2, r3, #1
c000b5d4:	e50b2008 	str	r2, [fp, #-8]
c000b5d8:	e5d32000 	ldrb	r2, [r3]
c000b5dc:	e51b300c 	ldr	r3, [fp, #-12]
c000b5e0:	e2831001 	add	r1, r3, #1
c000b5e4:	e50b100c 	str	r1, [fp, #-12]
c000b5e8:	e5d33000 	ldrb	r3, [r3]
c000b5ec:	e1520003 	cmp	r2, r3
c000b5f0:	0a000000 	beq	c000b5f8 <memcmp+0x68>
c000b5f4:	ea000005 	b	c000b610 <memcmp+0x80>
c000b5f8:	e51b3018 	ldr	r3, [fp, #-24]
c000b5fc:	e2433001 	sub	r3, r3, #1
c000b600:	e50b3018 	str	r3, [fp, #-24]
c000b604:	e51b3018 	ldr	r3, [fp, #-24]
c000b608:	e3530000 	cmp	r3, #0
c000b60c:	1affffee 	bne	c000b5cc <memcmp+0x3c>
c000b610:	e51b3018 	ldr	r3, [fp, #-24]
c000b614:	e1a00003 	mov	r0, r3
c000b618:	e24bd000 	sub	sp, fp, #0
c000b61c:	e49db004 	pop	{fp}		; (ldr fp, [sp], #4)
c000b620:	e12fff1e 	bx	lr

c000b624 <memmove>:
c000b624:	e52db004 	push	{fp}		; (str fp, [sp, #-4]!)
c000b628:	e28db000 	add	fp, sp, #0
c000b62c:	e24dd01c 	sub	sp, sp, #28
c000b630:	e50b0010 	str	r0, [fp, #-16]
c000b634:	e50b1014 	str	r1, [fp, #-20]
c000b638:	e50b2018 	str	r2, [fp, #-24]
c000b63c:	e51b2010 	ldr	r2, [fp, #-16]
c000b640:	e51b3014 	ldr	r3, [fp, #-20]
c000b644:	e1520003 	cmp	r2, r3
c000b648:	8a000012 	bhi	c000b698 <memmove+0x74>
c000b64c:	e51b3010 	ldr	r3, [fp, #-16]
c000b650:	e50b3008 	str	r3, [fp, #-8]
c000b654:	e51b3014 	ldr	r3, [fp, #-20]
c000b658:	e50b300c 	str	r3, [fp, #-12]
c000b65c:	ea000007 	b	c000b680 <memmove+0x5c>
c000b660:	e51b3008 	ldr	r3, [fp, #-8]
c000b664:	e2832001 	add	r2, r3, #1
c000b668:	e50b2008 	str	r2, [fp, #-8]
c000b66c:	e51b200c 	ldr	r2, [fp, #-12]
c000b670:	e2821001 	add	r1, r2, #1
c000b674:	e50b100c 	str	r1, [fp, #-12]
c000b678:	e5d22000 	ldrb	r2, [r2]
c000b67c:	e5c32000 	strb	r2, [r3]
c000b680:	e51b3018 	ldr	r3, [fp, #-24]
c000b684:	e2432001 	sub	r2, r3, #1
c000b688:	e50b2018 	str	r2, [fp, #-24]
c000b68c:	e3530000 	cmp	r3, #0
c000b690:	1afffff2 	bne	c000b660 <memmove+0x3c>
c000b694:	ea00001b 	b	c000b708 <memmove+0xe4>
c000b698:	e51b3010 	ldr	r3, [fp, #-16]
c000b69c:	e50b3008 	str	r3, [fp, #-8]
c000b6a0:	e51b2008 	ldr	r2, [fp, #-8]
c000b6a4:	e51b3018 	ldr	r3, [fp, #-24]
c000b6a8:	e0823003 	add	r3, r2, r3
c000b6ac:	e50b3008 	str	r3, [fp, #-8]
c000b6b0:	e51b3014 	ldr	r3, [fp, #-20]
c000b6b4:	e50b300c 	str	r3, [fp, #-12]
c000b6b8:	e51b200c 	ldr	r2, [fp, #-12]
c000b6bc:	e51b3018 	ldr	r3, [fp, #-24]
c000b6c0:	e0823003 	add	r3, r2, r3
c000b6c4:	e50b300c 	str	r3, [fp, #-12]
c000b6c8:	ea000009 	b	c000b6f4 <memmove+0xd0>
c000b6cc:	e51b3008 	ldr	r3, [fp, #-8]
c000b6d0:	e2433001 	sub	r3, r3, #1
c000b6d4:	e50b3008 	str	r3, [fp, #-8]
c000b6d8:	e51b300c 	ldr	r3, [fp, #-12]
c000b6dc:	e2433001 	sub	r3, r3, #1
c000b6e0:	e50b300c 	str	r3, [fp, #-12]
c000b6e4:	e51b300c 	ldr	r3, [fp, #-12]
c000b6e8:	e5d32000 	ldrb	r2, [r3]
c000b6ec:	e51b3008 	ldr	r3, [fp, #-8]
c000b6f0:	e5c32000 	strb	r2, [r3]
c000b6f4:	e51b3018 	ldr	r3, [fp, #-24]
c000b6f8:	e2432001 	sub	r2, r3, #1
c000b6fc:	e50b2018 	str	r2, [fp, #-24]
c000b700:	e3530000 	cmp	r3, #0
c000b704:	1afffff0 	bne	c000b6cc <memmove+0xa8>
c000b708:	e51b3010 	ldr	r3, [fp, #-16]
c000b70c:	e1a00003 	mov	r0, r3
c000b710:	e24bd000 	sub	sp, fp, #0
c000b714:	e49db004 	pop	{fp}		; (ldr fp, [sp], #4)
c000b718:	e12fff1e 	bx	lr

c000b71c <memchr>:
c000b71c:	e52db004 	push	{fp}		; (str fp, [sp, #-4]!)
c000b720:	e28db000 	add	fp, sp, #0
c000b724:	e24dd01c 	sub	sp, sp, #28
c000b728:	e50b0010 	str	r0, [fp, #-16]
c000b72c:	e50b1014 	str	r1, [fp, #-20]
c000b730:	e50b2018 	str	r2, [fp, #-24]
c000b734:	e51b3010 	ldr	r3, [fp, #-16]
c000b738:	e50b3008 	str	r3, [fp, #-8]
c000b73c:	ea00000a 	b	c000b76c <memchr+0x50>
c000b740:	e51b3014 	ldr	r3, [fp, #-20]
c000b744:	e20320ff 	and	r2, r3, #255	; 0xff
c000b748:	e51b3008 	ldr	r3, [fp, #-8]
c000b74c:	e2831001 	add	r1, r3, #1
c000b750:	e50b1008 	str	r1, [fp, #-8]
c000b754:	e5d33000 	ldrb	r3, [r3]
c000b758:	e1520003 	cmp	r2, r3
c000b75c:	1a000002 	bne	c000b76c <memchr+0x50>
c000b760:	e51b3008 	ldr	r3, [fp, #-8]
c000b764:	e2433001 	sub	r3, r3, #1
c000b768:	ea000005 	b	c000b784 <memchr+0x68>
c000b76c:	e51b3018 	ldr	r3, [fp, #-24]
c000b770:	e2432001 	sub	r2, r3, #1
c000b774:	e50b2018 	str	r2, [fp, #-24]
c000b778:	e3530000 	cmp	r3, #0
c000b77c:	1affffef 	bne	c000b740 <memchr+0x24>
c000b780:	e3a03000 	mov	r3, #0
c000b784:	e1a00003 	mov	r0, r3
c000b788:	e24bd000 	sub	sp, fp, #0
c000b78c:	e49db004 	pop	{fp}		; (ldr fp, [sp], #4)
c000b790:	e12fff1e 	bx	lr

c000b794 <strcat>:
c000b794:	e52db004 	push	{fp}		; (str fp, [sp, #-4]!)
c000b798:	e28db000 	add	fp, sp, #0
c000b79c:	e24dd014 	sub	sp, sp, #20
c000b7a0:	e50b0010 	str	r0, [fp, #-16]
c000b7a4:	e50b1014 	str	r1, [fp, #-20]
c000b7a8:	e51b3010 	ldr	r3, [fp, #-16]
c000b7ac:	e50b3008 	str	r3, [fp, #-8]
c000b7b0:	ea000002 	b	c000b7c0 <strcat+0x2c>
c000b7b4:	e51b3010 	ldr	r3, [fp, #-16]
c000b7b8:	e2833001 	add	r3, r3, #1
c000b7bc:	e50b3010 	str	r3, [fp, #-16]
c000b7c0:	e51b3010 	ldr	r3, [fp, #-16]
c000b7c4:	e5d33000 	ldrb	r3, [r3]
c000b7c8:	e3530000 	cmp	r3, #0
c000b7cc:	1afffff8 	bne	c000b7b4 <strcat+0x20>
c000b7d0:	e1a00000 	nop			; (mov r0, r0)
c000b7d4:	e51b3010 	ldr	r3, [fp, #-16]
c000b7d8:	e2832001 	add	r2, r3, #1
c000b7dc:	e50b2010 	str	r2, [fp, #-16]
c000b7e0:	e51b2014 	ldr	r2, [fp, #-20]
c000b7e4:	e2821001 	add	r1, r2, #1
c000b7e8:	e50b1014 	str	r1, [fp, #-20]
c000b7ec:	e5d22000 	ldrb	r2, [r2]
c000b7f0:	e5c32000 	strb	r2, [r3]
c000b7f4:	e5d33000 	ldrb	r3, [r3]
c000b7f8:	e3530000 	cmp	r3, #0
c000b7fc:	1afffff4 	bne	c000b7d4 <strcat+0x40>
c000b800:	e51b3008 	ldr	r3, [fp, #-8]
c000b804:	e1a00003 	mov	r0, r3
c000b808:	e24bd000 	sub	sp, fp, #0
c000b80c:	e49db004 	pop	{fp}		; (ldr fp, [sp], #4)
c000b810:	e12fff1e 	bx	lr

c000b814 <strcmp>:
c000b814:	e52db004 	push	{fp}		; (str fp, [sp, #-4]!)
c000b818:	e28db000 	add	fp, sp, #0
c000b81c:	e24dd00c 	sub	sp, sp, #12
c000b820:	e50b0008 	str	r0, [fp, #-8]
c000b824:	e50b100c 	str	r1, [fp, #-12]
c000b828:	ea000007 	b	c000b84c <strcmp+0x38>
c000b82c:	e51b3008 	ldr	r3, [fp, #-8]
c000b830:	e2832001 	add	r2, r3, #1
c000b834:	e50b2008 	str	r2, [fp, #-8]
c000b838:	e5d33000 	ldrb	r3, [r3]
c000b83c:	e3530000 	cmp	r3, #0
c000b840:	1a000001 	bne	c000b84c <strcmp+0x38>
c000b844:	e3a03000 	mov	r3, #0
c000b848:	ea00000e 	b	c000b888 <strcmp+0x74>
c000b84c:	e51b3008 	ldr	r3, [fp, #-8]
c000b850:	e5d32000 	ldrb	r2, [r3]
c000b854:	e51b300c 	ldr	r3, [fp, #-12]
c000b858:	e2831001 	add	r1, r3, #1
c000b85c:	e50b100c 	str	r1, [fp, #-12]
c000b860:	e5d33000 	ldrb	r3, [r3]
c000b864:	e1520003 	cmp	r2, r3
c000b868:	0affffef 	beq	c000b82c <strcmp+0x18>
c000b86c:	e51b3008 	ldr	r3, [fp, #-8]
c000b870:	e5d33000 	ldrb	r3, [r3]
c000b874:	e1a02003 	mov	r2, r3
c000b878:	e51b300c 	ldr	r3, [fp, #-12]
c000b87c:	e2433001 	sub	r3, r3, #1
c000b880:	e5d33000 	ldrb	r3, [r3]
c000b884:	e0633002 	rsb	r3, r3, r2
c000b888:	e1a00003 	mov	r0, r3
c000b88c:	e24bd000 	sub	sp, fp, #0
c000b890:	e49db004 	pop	{fp}		; (ldr fp, [sp], #4)
c000b894:	e12fff1e 	bx	lr

c000b898 <strncmp>:
c000b898:	e52db004 	push	{fp}		; (str fp, [sp, #-4]!)
c000b89c:	e28db000 	add	fp, sp, #0
c000b8a0:	e24dd01c 	sub	sp, sp, #28
c000b8a4:	e50b0010 	str	r0, [fp, #-16]
c000b8a8:	e50b1014 	str	r1, [fp, #-20]
c000b8ac:	e50b2018 	str	r2, [fp, #-24]
c000b8b0:	ea00001c 	b	c000b928 <strncmp+0x90>
c000b8b4:	e51b3010 	ldr	r3, [fp, #-16]
c000b8b8:	e2832001 	add	r2, r3, #1
c000b8bc:	e50b2010 	str	r2, [fp, #-16]
c000b8c0:	e5d33000 	ldrb	r3, [r3]
c000b8c4:	e54b3005 	strb	r3, [fp, #-5]
c000b8c8:	e51b3014 	ldr	r3, [fp, #-20]
c000b8cc:	e2832001 	add	r2, r3, #1
c000b8d0:	e50b2014 	str	r2, [fp, #-20]
c000b8d4:	e5d33000 	ldrb	r3, [r3]
c000b8d8:	e54b3006 	strb	r3, [fp, #-6]
c000b8dc:	e55b2005 	ldrb	r2, [fp, #-5]
c000b8e0:	e55b3006 	ldrb	r3, [fp, #-6]
c000b8e4:	e1520003 	cmp	r2, r3
c000b8e8:	0a000007 	beq	c000b90c <strncmp+0x74>
c000b8ec:	e55b2005 	ldrb	r2, [fp, #-5]
c000b8f0:	e55b3006 	ldrb	r3, [fp, #-6]
c000b8f4:	e1520003 	cmp	r2, r3
c000b8f8:	2a000001 	bcs	c000b904 <strncmp+0x6c>
c000b8fc:	e3e03000 	mvn	r3, #0
c000b900:	ea000000 	b	c000b908 <strncmp+0x70>
c000b904:	e3a03001 	mov	r3, #1
c000b908:	ea00000a 	b	c000b938 <strncmp+0xa0>
c000b90c:	e55b3005 	ldrb	r3, [fp, #-5]
c000b910:	e3530000 	cmp	r3, #0
c000b914:	1a000000 	bne	c000b91c <strncmp+0x84>
c000b918:	ea000005 	b	c000b934 <strncmp+0x9c>
c000b91c:	e51b3018 	ldr	r3, [fp, #-24]
c000b920:	e2433001 	sub	r3, r3, #1
c000b924:	e50b3018 	str	r3, [fp, #-24]
c000b928:	e51b3018 	ldr	r3, [fp, #-24]
c000b92c:	e3530000 	cmp	r3, #0
c000b930:	1affffdf 	bne	c000b8b4 <strncmp+0x1c>
c000b934:	e3a03000 	mov	r3, #0
c000b938:	e1a00003 	mov	r0, r3
c000b93c:	e24bd000 	sub	sp, fp, #0
c000b940:	e49db004 	pop	{fp}		; (ldr fp, [sp], #4)
c000b944:	e12fff1e 	bx	lr

c000b948 <strchr>:
c000b948:	e52db004 	push	{fp}		; (str fp, [sp, #-4]!)
c000b94c:	e28db000 	add	fp, sp, #0
c000b950:	e24dd00c 	sub	sp, sp, #12
c000b954:	e50b0008 	str	r0, [fp, #-8]
c000b958:	e50b100c 	str	r1, [fp, #-12]
c000b95c:	ea000008 	b	c000b984 <strchr+0x3c>
c000b960:	e51b3008 	ldr	r3, [fp, #-8]
c000b964:	e5d33000 	ldrb	r3, [r3]
c000b968:	e3530000 	cmp	r3, #0
c000b96c:	1a000001 	bne	c000b978 <strchr+0x30>
c000b970:	e3a03000 	mov	r3, #0
c000b974:	ea000009 	b	c000b9a0 <strchr+0x58>
c000b978:	e51b3008 	ldr	r3, [fp, #-8]
c000b97c:	e2833001 	add	r3, r3, #1
c000b980:	e50b3008 	str	r3, [fp, #-8]
c000b984:	e51b3008 	ldr	r3, [fp, #-8]
c000b988:	e5d32000 	ldrb	r2, [r3]
c000b98c:	e51b300c 	ldr	r3, [fp, #-12]
c000b990:	e20330ff 	and	r3, r3, #255	; 0xff
c000b994:	e1520003 	cmp	r2, r3
c000b998:	1afffff0 	bne	c000b960 <strchr+0x18>
c000b99c:	e51b3008 	ldr	r3, [fp, #-8]
c000b9a0:	e1a00003 	mov	r0, r3
c000b9a4:	e24bd000 	sub	sp, fp, #0
c000b9a8:	e49db004 	pop	{fp}		; (ldr fp, [sp], #4)
c000b9ac:	e12fff1e 	bx	lr

c000b9b0 <strrchr>:
c000b9b0:	e52db004 	push	{fp}		; (str fp, [sp, #-4]!)
c000b9b4:	e28db000 	add	fp, sp, #0
c000b9b8:	e24dd014 	sub	sp, sp, #20
c000b9bc:	e50b0010 	str	r0, [fp, #-16]
c000b9c0:	e50b1014 	str	r1, [fp, #-20]
c000b9c4:	e3a03000 	mov	r3, #0
c000b9c8:	e50b3008 	str	r3, [fp, #-8]
c000b9cc:	e51b3010 	ldr	r3, [fp, #-16]
c000b9d0:	e5d32000 	ldrb	r2, [r3]
c000b9d4:	e51b3014 	ldr	r3, [fp, #-20]
c000b9d8:	e20330ff 	and	r3, r3, #255	; 0xff
c000b9dc:	e1520003 	cmp	r2, r3
c000b9e0:	1a000001 	bne	c000b9ec <strrchr+0x3c>
c000b9e4:	e51b3010 	ldr	r3, [fp, #-16]
c000b9e8:	e50b3008 	str	r3, [fp, #-8]
c000b9ec:	e51b3010 	ldr	r3, [fp, #-16]
c000b9f0:	e2832001 	add	r2, r3, #1
c000b9f4:	e50b2010 	str	r2, [fp, #-16]
c000b9f8:	e5d33000 	ldrb	r3, [r3]
c000b9fc:	e3530000 	cmp	r3, #0
c000ba00:	1afffff1 	bne	c000b9cc <strrchr+0x1c>
c000ba04:	e51b3008 	ldr	r3, [fp, #-8]
c000ba08:	e1a00003 	mov	r0, r3
c000ba0c:	e24bd000 	sub	sp, fp, #0
c000ba10:	e49db004 	pop	{fp}		; (ldr fp, [sp], #4)
c000ba14:	e12fff1e 	bx	lr

c000ba18 <strstr>:
c000ba18:	e92d4800 	push	{fp, lr}
c000ba1c:	e28db004 	add	fp, sp, #4
c000ba20:	e24dd010 	sub	sp, sp, #16
c000ba24:	e50b0010 	str	r0, [fp, #-16]
c000ba28:	e50b1014 	str	r1, [fp, #-20]
c000ba2c:	e51b0014 	ldr	r0, [fp, #-20]
c000ba30:	eb00003c 	bl	c000bb28 <strlen>
c000ba34:	e50b000c 	str	r0, [fp, #-12]
c000ba38:	e51b300c 	ldr	r3, [fp, #-12]
c000ba3c:	e3530000 	cmp	r3, #0
c000ba40:	1a000001 	bne	c000ba4c <strstr+0x34>
c000ba44:	e51b3010 	ldr	r3, [fp, #-16]
c000ba48:	ea000017 	b	c000baac <strstr+0x94>
c000ba4c:	e51b0010 	ldr	r0, [fp, #-16]
c000ba50:	eb000034 	bl	c000bb28 <strlen>
c000ba54:	e50b0008 	str	r0, [fp, #-8]
c000ba58:	ea00000e 	b	c000ba98 <strstr+0x80>
c000ba5c:	e51b3008 	ldr	r3, [fp, #-8]
c000ba60:	e2433001 	sub	r3, r3, #1
c000ba64:	e50b3008 	str	r3, [fp, #-8]
c000ba68:	e51b0010 	ldr	r0, [fp, #-16]
c000ba6c:	e51b1014 	ldr	r1, [fp, #-20]
c000ba70:	e51b200c 	ldr	r2, [fp, #-12]
c000ba74:	ebfffec5 	bl	c000b590 <memcmp>
c000ba78:	e1a03000 	mov	r3, r0
c000ba7c:	e3530000 	cmp	r3, #0
c000ba80:	1a000001 	bne	c000ba8c <strstr+0x74>
c000ba84:	e51b3010 	ldr	r3, [fp, #-16]
c000ba88:	ea000007 	b	c000baac <strstr+0x94>
c000ba8c:	e51b3010 	ldr	r3, [fp, #-16]
c000ba90:	e2833001 	add	r3, r3, #1
c000ba94:	e50b3010 	str	r3, [fp, #-16]
c000ba98:	e51b2008 	ldr	r2, [fp, #-8]
c000ba9c:	e51b300c 	ldr	r3, [fp, #-12]
c000baa0:	e1520003 	cmp	r2, r3
c000baa4:	2affffec 	bcs	c000ba5c <strstr+0x44>
c000baa8:	e3a03000 	mov	r3, #0
c000baac:	e1a00003 	mov	r0, r3
c000bab0:	e24bd004 	sub	sp, fp, #4
c000bab4:	e8bd4800 	pop	{fp, lr}
c000bab8:	e12fff1e 	bx	lr

c000babc <strcpy>:
c000babc:	e52db004 	push	{fp}		; (str fp, [sp, #-4]!)
c000bac0:	e28db000 	add	fp, sp, #0
c000bac4:	e24dd014 	sub	sp, sp, #20
c000bac8:	e50b0010 	str	r0, [fp, #-16]
c000bacc:	e50b1014 	str	r1, [fp, #-20]
c000bad0:	e51b3010 	ldr	r3, [fp, #-16]
c000bad4:	e50b3008 	str	r3, [fp, #-8]
c000bad8:	ea000005 	b	c000baf4 <strcpy+0x38>
c000badc:	e51b3014 	ldr	r3, [fp, #-20]
c000bae0:	e2833001 	add	r3, r3, #1
c000bae4:	e50b3014 	str	r3, [fp, #-20]
c000bae8:	e51b3010 	ldr	r3, [fp, #-16]
c000baec:	e2833001 	add	r3, r3, #1
c000baf0:	e50b3010 	str	r3, [fp, #-16]
c000baf4:	e51b3014 	ldr	r3, [fp, #-20]
c000baf8:	e5d32000 	ldrb	r2, [r3]
c000bafc:	e51b3010 	ldr	r3, [fp, #-16]
c000bb00:	e5c32000 	strb	r2, [r3]
c000bb04:	e51b3010 	ldr	r3, [fp, #-16]
c000bb08:	e5d33000 	ldrb	r3, [r3]
c000bb0c:	e3530000 	cmp	r3, #0
c000bb10:	1afffff1 	bne	c000badc <strcpy+0x20>
c000bb14:	e51b3008 	ldr	r3, [fp, #-8]
c000bb18:	e1a00003 	mov	r0, r3
c000bb1c:	e24bd000 	sub	sp, fp, #0
c000bb20:	e49db004 	pop	{fp}		; (ldr fp, [sp], #4)
c000bb24:	e12fff1e 	bx	lr

c000bb28 <strlen>:
c000bb28:	e52db004 	push	{fp}		; (str fp, [sp, #-4]!)
c000bb2c:	e28db000 	add	fp, sp, #0
c000bb30:	e24dd014 	sub	sp, sp, #20
c000bb34:	e50b0010 	str	r0, [fp, #-16]
c000bb38:	e51b3010 	ldr	r3, [fp, #-16]
c000bb3c:	e50b3008 	str	r3, [fp, #-8]
c000bb40:	ea000002 	b	c000bb50 <strlen+0x28>
c000bb44:	e51b3008 	ldr	r3, [fp, #-8]
c000bb48:	e2833001 	add	r3, r3, #1
c000bb4c:	e50b3008 	str	r3, [fp, #-8]
c000bb50:	e51b3008 	ldr	r3, [fp, #-8]
c000bb54:	e5d33000 	ldrb	r3, [r3]
c000bb58:	e3530000 	cmp	r3, #0
c000bb5c:	1afffff8 	bne	c000bb44 <strlen+0x1c>
c000bb60:	e51b2008 	ldr	r2, [fp, #-8]
c000bb64:	e51b3010 	ldr	r3, [fp, #-16]
c000bb68:	e0633002 	rsb	r3, r3, r2
c000bb6c:	e1a00003 	mov	r0, r3
c000bb70:	e24bd000 	sub	sp, fp, #0
c000bb74:	e49db004 	pop	{fp}		; (ldr fp, [sp], #4)
c000bb78:	e12fff1e 	bx	lr

c000bb7c <strncpy>:
c000bb7c:	e52db004 	push	{fp}		; (str fp, [sp, #-4]!)
c000bb80:	e28db000 	add	fp, sp, #0
c000bb84:	e24dd01c 	sub	sp, sp, #28
c000bb88:	e50b0010 	str	r0, [fp, #-16]
c000bb8c:	e50b1014 	str	r1, [fp, #-20]
c000bb90:	e50b2018 	str	r2, [fp, #-24]
c000bb94:	e3a03000 	mov	r3, #0
c000bb98:	e50b3008 	str	r3, [fp, #-8]
c000bb9c:	ea00000a 	b	c000bbcc <strncpy+0x50>
c000bba0:	e51b2010 	ldr	r2, [fp, #-16]
c000bba4:	e51b3008 	ldr	r3, [fp, #-8]
c000bba8:	e0823003 	add	r3, r2, r3
c000bbac:	e51b1014 	ldr	r1, [fp, #-20]
c000bbb0:	e51b2008 	ldr	r2, [fp, #-8]
c000bbb4:	e0812002 	add	r2, r1, r2
c000bbb8:	e5d22000 	ldrb	r2, [r2]
c000bbbc:	e5c32000 	strb	r2, [r3]
c000bbc0:	e51b3008 	ldr	r3, [fp, #-8]
c000bbc4:	e2833001 	add	r3, r3, #1
c000bbc8:	e50b3008 	str	r3, [fp, #-8]
c000bbcc:	e51b2008 	ldr	r2, [fp, #-8]
c000bbd0:	e51b3018 	ldr	r3, [fp, #-24]
c000bbd4:	e1520003 	cmp	r2, r3
c000bbd8:	2a000005 	bcs	c000bbf4 <strncpy+0x78>
c000bbdc:	e51b2014 	ldr	r2, [fp, #-20]
c000bbe0:	e51b3008 	ldr	r3, [fp, #-8]
c000bbe4:	e0823003 	add	r3, r2, r3
c000bbe8:	e5d33000 	ldrb	r3, [r3]
c000bbec:	e3530000 	cmp	r3, #0
c000bbf0:	1affffea 	bne	c000bba0 <strncpy+0x24>
c000bbf4:	ea000007 	b	c000bc18 <strncpy+0x9c>
c000bbf8:	e51b2010 	ldr	r2, [fp, #-16]
c000bbfc:	e51b3008 	ldr	r3, [fp, #-8]
c000bc00:	e0823003 	add	r3, r2, r3
c000bc04:	e3a02000 	mov	r2, #0
c000bc08:	e5c32000 	strb	r2, [r3]
c000bc0c:	e51b3008 	ldr	r3, [fp, #-8]
c000bc10:	e2833001 	add	r3, r3, #1
c000bc14:	e50b3008 	str	r3, [fp, #-8]
c000bc18:	e51b2008 	ldr	r2, [fp, #-8]
c000bc1c:	e51b3018 	ldr	r3, [fp, #-24]
c000bc20:	e1520003 	cmp	r2, r3
c000bc24:	3afffff3 	bcc	c000bbf8 <strncpy+0x7c>
c000bc28:	e51b3010 	ldr	r3, [fp, #-16]
c000bc2c:	e1a00003 	mov	r0, r3
c000bc30:	e24bd000 	sub	sp, fp, #0
c000bc34:	e49db004 	pop	{fp}		; (ldr fp, [sp], #4)
c000bc38:	e12fff1e 	bx	lr

c000bc3c <memcpy>:
c000bc3c:	e52db004 	push	{fp}		; (str fp, [sp, #-4]!)
c000bc40:	e28db000 	add	fp, sp, #0
c000bc44:	e24dd064 	sub	sp, sp, #100	; 0x64
c000bc48:	e50b0058 	str	r0, [fp, #-88]	; 0x58
c000bc4c:	e50b105c 	str	r1, [fp, #-92]	; 0x5c
c000bc50:	e50b2060 	str	r2, [fp, #-96]	; 0x60
c000bc54:	e51b3058 	ldr	r3, [fp, #-88]	; 0x58
c000bc58:	e50b3008 	str	r3, [fp, #-8]
c000bc5c:	e51b305c 	ldr	r3, [fp, #-92]	; 0x5c
c000bc60:	e50b300c 	str	r3, [fp, #-12]
c000bc64:	e51b3060 	ldr	r3, [fp, #-96]	; 0x60
c000bc68:	e3530007 	cmp	r3, #7
c000bc6c:	8a000046 	bhi	c000bd8c <memcpy+0x150>
c000bc70:	e51b3060 	ldr	r3, [fp, #-96]	; 0x60
c000bc74:	e2433001 	sub	r3, r3, #1
c000bc78:	e3530006 	cmp	r3, #6
c000bc7c:	979ff103 	ldrls	pc, [pc, r3, lsl #2]
c000bc80:	ea00003e 	b	c000bd80 <memcpy+0x144>
c000bc84:	c000bd60 	andgt	fp, r0, r0, ror #26
c000bc88:	c000bd40 	andgt	fp, r0, r0, asr #26
c000bc8c:	c000bd20 	andgt	fp, r0, r0, lsr #26
c000bc90:	c000bd00 	andgt	fp, r0, r0, lsl #26
c000bc94:	c000bce0 	andgt	fp, r0, r0, ror #25
c000bc98:	c000bcc0 	andgt	fp, r0, r0, asr #25
c000bc9c:	c000bca0 	andgt	fp, r0, r0, lsr #25
c000bca0:	e51b3008 	ldr	r3, [fp, #-8]
c000bca4:	e2832001 	add	r2, r3, #1
c000bca8:	e50b2008 	str	r2, [fp, #-8]
c000bcac:	e51b200c 	ldr	r2, [fp, #-12]
c000bcb0:	e2821001 	add	r1, r2, #1
c000bcb4:	e50b100c 	str	r1, [fp, #-12]
c000bcb8:	e5d22000 	ldrb	r2, [r2]
c000bcbc:	e5c32000 	strb	r2, [r3]
c000bcc0:	e51b3008 	ldr	r3, [fp, #-8]
c000bcc4:	e2832001 	add	r2, r3, #1
c000bcc8:	e50b2008 	str	r2, [fp, #-8]
c000bccc:	e51b200c 	ldr	r2, [fp, #-12]
c000bcd0:	e2821001 	add	r1, r2, #1
c000bcd4:	e50b100c 	str	r1, [fp, #-12]
c000bcd8:	e5d22000 	ldrb	r2, [r2]
c000bcdc:	e5c32000 	strb	r2, [r3]
c000bce0:	e51b3008 	ldr	r3, [fp, #-8]
c000bce4:	e2832001 	add	r2, r3, #1
c000bce8:	e50b2008 	str	r2, [fp, #-8]
c000bcec:	e51b200c 	ldr	r2, [fp, #-12]
c000bcf0:	e2821001 	add	r1, r2, #1
c000bcf4:	e50b100c 	str	r1, [fp, #-12]
c000bcf8:	e5d22000 	ldrb	r2, [r2]
c000bcfc:	e5c32000 	strb	r2, [r3]
c000bd00:	e51b3008 	ldr	r3, [fp, #-8]
c000bd04:	e2832001 	add	r2, r3, #1
c000bd08:	e50b2008 	str	r2, [fp, #-8]
c000bd0c:	e51b200c 	ldr	r2, [fp, #-12]
c000bd10:	e2821001 	add	r1, r2, #1
c000bd14:	e50b100c 	str	r1, [fp, #-12]
c000bd18:	e5d22000 	ldrb	r2, [r2]
c000bd1c:	e5c32000 	strb	r2, [r3]
c000bd20:	e51b3008 	ldr	r3, [fp, #-8]
c000bd24:	e2832001 	add	r2, r3, #1
c000bd28:	e50b2008 	str	r2, [fp, #-8]
c000bd2c:	e51b200c 	ldr	r2, [fp, #-12]
c000bd30:	e2821001 	add	r1, r2, #1
c000bd34:	e50b100c 	str	r1, [fp, #-12]
c000bd38:	e5d22000 	ldrb	r2, [r2]
c000bd3c:	e5c32000 	strb	r2, [r3]
c000bd40:	e51b3008 	ldr	r3, [fp, #-8]
c000bd44:	e2832001 	add	r2, r3, #1
c000bd48:	e50b2008 	str	r2, [fp, #-8]
c000bd4c:	e51b200c 	ldr	r2, [fp, #-12]
c000bd50:	e2821001 	add	r1, r2, #1
c000bd54:	e50b100c 	str	r1, [fp, #-12]
c000bd58:	e5d22000 	ldrb	r2, [r2]
c000bd5c:	e5c32000 	strb	r2, [r3]
c000bd60:	e51b3008 	ldr	r3, [fp, #-8]
c000bd64:	e2832001 	add	r2, r3, #1
c000bd68:	e50b2008 	str	r2, [fp, #-8]
c000bd6c:	e51b200c 	ldr	r2, [fp, #-12]
c000bd70:	e2821001 	add	r1, r2, #1
c000bd74:	e50b100c 	str	r1, [fp, #-12]
c000bd78:	e5d22000 	ldrb	r2, [r2]
c000bd7c:	e5c32000 	strb	r2, [r3]
c000bd80:	e1a00000 	nop			; (mov r0, r0)
c000bd84:	e51b3058 	ldr	r3, [fp, #-88]	; 0x58
c000bd88:	ea0003a2 	b	c000cc18 <memcpy+0xfdc>
c000bd8c:	ea00000a 	b	c000bdbc <memcpy+0x180>
c000bd90:	e51b3008 	ldr	r3, [fp, #-8]
c000bd94:	e2832001 	add	r2, r3, #1
c000bd98:	e50b2008 	str	r2, [fp, #-8]
c000bd9c:	e51b200c 	ldr	r2, [fp, #-12]
c000bda0:	e2821001 	add	r1, r2, #1
c000bda4:	e50b100c 	str	r1, [fp, #-12]
c000bda8:	e5d22000 	ldrb	r2, [r2]
c000bdac:	e5c32000 	strb	r2, [r3]
c000bdb0:	e51b3060 	ldr	r3, [fp, #-96]	; 0x60
c000bdb4:	e2433001 	sub	r3, r3, #1
c000bdb8:	e50b3060 	str	r3, [fp, #-96]	; 0x60
c000bdbc:	e51b3008 	ldr	r3, [fp, #-8]
c000bdc0:	e2033003 	and	r3, r3, #3
c000bdc4:	e3530000 	cmp	r3, #0
c000bdc8:	1afffff0 	bne	c000bd90 <memcpy+0x154>
c000bdcc:	e51b300c 	ldr	r3, [fp, #-12]
c000bdd0:	e2033003 	and	r3, r3, #3
c000bdd4:	e3530003 	cmp	r3, #3
c000bdd8:	979ff103 	ldrls	pc, [pc, r3, lsl #2]
c000bddc:	ea00038d 	b	c000cc18 <memcpy+0xfdc>
c000bde0:	c000bdf0 	strdgt	fp, [r0], -r0
c000bde4:	c000c054 	andgt	ip, r0, r4, asr r0
c000bde8:	c000c440 	andgt	ip, r0, r0, asr #8
c000bdec:	c000c82c 	andgt	ip, r0, ip, lsr #16
c000bdf0:	e51b3008 	ldr	r3, [fp, #-8]
c000bdf4:	e50b3010 	str	r3, [fp, #-16]
c000bdf8:	e51b300c 	ldr	r3, [fp, #-12]
c000bdfc:	e50b3014 	str	r3, [fp, #-20]
c000be00:	e51b3060 	ldr	r3, [fp, #-96]	; 0x60
c000be04:	e1a03123 	lsr	r3, r3, #2
c000be08:	e50b3018 	str	r3, [fp, #-24]
c000be0c:	ea00000a 	b	c000be3c <memcpy+0x200>
c000be10:	e51b3010 	ldr	r3, [fp, #-16]
c000be14:	e2832004 	add	r2, r3, #4
c000be18:	e50b2010 	str	r2, [fp, #-16]
c000be1c:	e51b2014 	ldr	r2, [fp, #-20]
c000be20:	e2821004 	add	r1, r2, #4
c000be24:	e50b1014 	str	r1, [fp, #-20]
c000be28:	e5922000 	ldr	r2, [r2]
c000be2c:	e5832000 	str	r2, [r3]
c000be30:	e51b3018 	ldr	r3, [fp, #-24]
c000be34:	e2433001 	sub	r3, r3, #1
c000be38:	e50b3018 	str	r3, [fp, #-24]
c000be3c:	e51b3018 	ldr	r3, [fp, #-24]
c000be40:	e2033007 	and	r3, r3, #7
c000be44:	e3530000 	cmp	r3, #0
c000be48:	1afffff0 	bne	c000be10 <memcpy+0x1d4>
c000be4c:	e51b3018 	ldr	r3, [fp, #-24]
c000be50:	e1a031a3 	lsr	r3, r3, #3
c000be54:	e50b3018 	str	r3, [fp, #-24]
c000be58:	ea00002c 	b	c000bf10 <memcpy+0x2d4>
c000be5c:	e51b3014 	ldr	r3, [fp, #-20]
c000be60:	e5932000 	ldr	r2, [r3]
c000be64:	e51b3010 	ldr	r3, [fp, #-16]
c000be68:	e5832000 	str	r2, [r3]
c000be6c:	e51b3010 	ldr	r3, [fp, #-16]
c000be70:	e2833004 	add	r3, r3, #4
c000be74:	e51b2014 	ldr	r2, [fp, #-20]
c000be78:	e5922004 	ldr	r2, [r2, #4]
c000be7c:	e5832000 	str	r2, [r3]
c000be80:	e51b3010 	ldr	r3, [fp, #-16]
c000be84:	e2833008 	add	r3, r3, #8
c000be88:	e51b2014 	ldr	r2, [fp, #-20]
c000be8c:	e5922008 	ldr	r2, [r2, #8]
c000be90:	e5832000 	str	r2, [r3]
c000be94:	e51b3010 	ldr	r3, [fp, #-16]
c000be98:	e283300c 	add	r3, r3, #12
c000be9c:	e51b2014 	ldr	r2, [fp, #-20]
c000bea0:	e592200c 	ldr	r2, [r2, #12]
c000bea4:	e5832000 	str	r2, [r3]
c000bea8:	e51b3010 	ldr	r3, [fp, #-16]
c000beac:	e2833010 	add	r3, r3, #16
c000beb0:	e51b2014 	ldr	r2, [fp, #-20]
c000beb4:	e5922010 	ldr	r2, [r2, #16]
c000beb8:	e5832000 	str	r2, [r3]
c000bebc:	e51b3010 	ldr	r3, [fp, #-16]
c000bec0:	e2833014 	add	r3, r3, #20
c000bec4:	e51b2014 	ldr	r2, [fp, #-20]
c000bec8:	e5922014 	ldr	r2, [r2, #20]
c000becc:	e5832000 	str	r2, [r3]
c000bed0:	e51b3010 	ldr	r3, [fp, #-16]
c000bed4:	e2833018 	add	r3, r3, #24
c000bed8:	e51b2014 	ldr	r2, [fp, #-20]
c000bedc:	e5922018 	ldr	r2, [r2, #24]
c000bee0:	e5832000 	str	r2, [r3]
c000bee4:	e51b3010 	ldr	r3, [fp, #-16]
c000bee8:	e283301c 	add	r3, r3, #28
c000beec:	e51b2014 	ldr	r2, [fp, #-20]
c000bef0:	e592201c 	ldr	r2, [r2, #28]
c000bef4:	e5832000 	str	r2, [r3]
c000bef8:	e51b3010 	ldr	r3, [fp, #-16]
c000befc:	e2833020 	add	r3, r3, #32
c000bf00:	e50b3010 	str	r3, [fp, #-16]
c000bf04:	e51b3014 	ldr	r3, [fp, #-20]
c000bf08:	e2833020 	add	r3, r3, #32
c000bf0c:	e50b3014 	str	r3, [fp, #-20]
c000bf10:	e51b3018 	ldr	r3, [fp, #-24]
c000bf14:	e2432001 	sub	r2, r3, #1
c000bf18:	e50b2018 	str	r2, [fp, #-24]
c000bf1c:	e3530000 	cmp	r3, #0
c000bf20:	1affffcd 	bne	c000be5c <memcpy+0x220>
c000bf24:	e51b3014 	ldr	r3, [fp, #-20]
c000bf28:	e50b300c 	str	r3, [fp, #-12]
c000bf2c:	e51b3010 	ldr	r3, [fp, #-16]
c000bf30:	e50b3008 	str	r3, [fp, #-8]
c000bf34:	e51b3060 	ldr	r3, [fp, #-96]	; 0x60
c000bf38:	e2033003 	and	r3, r3, #3
c000bf3c:	e2433001 	sub	r3, r3, #1
c000bf40:	e3530006 	cmp	r3, #6
c000bf44:	979ff103 	ldrls	pc, [pc, r3, lsl #2]
c000bf48:	ea00003e 	b	c000c048 <memcpy+0x40c>
c000bf4c:	c000c028 	andgt	ip, r0, r8, lsr #32
c000bf50:	c000c008 	andgt	ip, r0, r8
c000bf54:	c000bfe8 	andgt	fp, r0, r8, ror #31
c000bf58:	c000bfc8 	andgt	fp, r0, r8, asr #31
c000bf5c:	c000bfa8 	andgt	fp, r0, r8, lsr #31
c000bf60:	c000bf88 	andgt	fp, r0, r8, lsl #31
c000bf64:	c000bf68 	andgt	fp, r0, r8, ror #30
c000bf68:	e51b3008 	ldr	r3, [fp, #-8]
c000bf6c:	e2832001 	add	r2, r3, #1
c000bf70:	e50b2008 	str	r2, [fp, #-8]
c000bf74:	e51b200c 	ldr	r2, [fp, #-12]
c000bf78:	e2821001 	add	r1, r2, #1
c000bf7c:	e50b100c 	str	r1, [fp, #-12]
c000bf80:	e5d22000 	ldrb	r2, [r2]
c000bf84:	e5c32000 	strb	r2, [r3]
c000bf88:	e51b3008 	ldr	r3, [fp, #-8]
c000bf8c:	e2832001 	add	r2, r3, #1
c000bf90:	e50b2008 	str	r2, [fp, #-8]
c000bf94:	e51b200c 	ldr	r2, [fp, #-12]
c000bf98:	e2821001 	add	r1, r2, #1
c000bf9c:	e50b100c 	str	r1, [fp, #-12]
c000bfa0:	e5d22000 	ldrb	r2, [r2]
c000bfa4:	e5c32000 	strb	r2, [r3]
c000bfa8:	e51b3008 	ldr	r3, [fp, #-8]
c000bfac:	e2832001 	add	r2, r3, #1
c000bfb0:	e50b2008 	str	r2, [fp, #-8]
c000bfb4:	e51b200c 	ldr	r2, [fp, #-12]
c000bfb8:	e2821001 	add	r1, r2, #1
c000bfbc:	e50b100c 	str	r1, [fp, #-12]
c000bfc0:	e5d22000 	ldrb	r2, [r2]
c000bfc4:	e5c32000 	strb	r2, [r3]
c000bfc8:	e51b3008 	ldr	r3, [fp, #-8]
c000bfcc:	e2832001 	add	r2, r3, #1
c000bfd0:	e50b2008 	str	r2, [fp, #-8]
c000bfd4:	e51b200c 	ldr	r2, [fp, #-12]
c000bfd8:	e2821001 	add	r1, r2, #1
c000bfdc:	e50b100c 	str	r1, [fp, #-12]
c000bfe0:	e5d22000 	ldrb	r2, [r2]
c000bfe4:	e5c32000 	strb	r2, [r3]
c000bfe8:	e51b3008 	ldr	r3, [fp, #-8]
c000bfec:	e2832001 	add	r2, r3, #1
c000bff0:	e50b2008 	str	r2, [fp, #-8]
c000bff4:	e51b200c 	ldr	r2, [fp, #-12]
c000bff8:	e2821001 	add	r1, r2, #1
c000bffc:	e50b100c 	str	r1, [fp, #-12]
c000c000:	e5d22000 	ldrb	r2, [r2]
c000c004:	e5c32000 	strb	r2, [r3]
c000c008:	e51b3008 	ldr	r3, [fp, #-8]
c000c00c:	e2832001 	add	r2, r3, #1
c000c010:	e50b2008 	str	r2, [fp, #-8]
c000c014:	e51b200c 	ldr	r2, [fp, #-12]
c000c018:	e2821001 	add	r1, r2, #1
c000c01c:	e50b100c 	str	r1, [fp, #-12]
c000c020:	e5d22000 	ldrb	r2, [r2]
c000c024:	e5c32000 	strb	r2, [r3]
c000c028:	e51b3008 	ldr	r3, [fp, #-8]
c000c02c:	e2832001 	add	r2, r3, #1
c000c030:	e50b2008 	str	r2, [fp, #-8]
c000c034:	e51b200c 	ldr	r2, [fp, #-12]
c000c038:	e2821001 	add	r1, r2, #1
c000c03c:	e50b100c 	str	r1, [fp, #-12]
c000c040:	e5d22000 	ldrb	r2, [r2]
c000c044:	e5c32000 	strb	r2, [r3]
c000c048:	e1a00000 	nop			; (mov r0, r0)
c000c04c:	e51b3058 	ldr	r3, [fp, #-88]	; 0x58
c000c050:	ea0002f0 	b	c000cc18 <memcpy+0xfdc>
c000c054:	e51b3008 	ldr	r3, [fp, #-8]
c000c058:	e3c33003 	bic	r3, r3, #3
c000c05c:	e50b301c 	str	r3, [fp, #-28]
c000c060:	e51b300c 	ldr	r3, [fp, #-12]
c000c064:	e3c33003 	bic	r3, r3, #3
c000c068:	e50b3020 	str	r3, [fp, #-32]
c000c06c:	e51b3060 	ldr	r3, [fp, #-96]	; 0x60
c000c070:	e1a03123 	lsr	r3, r3, #2
c000c074:	e50b3024 	str	r3, [fp, #-36]	; 0x24
c000c078:	e51b3020 	ldr	r3, [fp, #-32]
c000c07c:	e2832004 	add	r2, r3, #4
c000c080:	e50b2020 	str	r2, [fp, #-32]
c000c084:	e5933000 	ldr	r3, [r3]
c000c088:	e50b3028 	str	r3, [fp, #-40]	; 0x28
c000c08c:	ea000014 	b	c000c0e4 <memcpy+0x4a8>
c000c090:	e51b3028 	ldr	r3, [fp, #-40]	; 0x28
c000c094:	e1a03423 	lsr	r3, r3, #8
c000c098:	e50b304c 	str	r3, [fp, #-76]	; 0x4c
c000c09c:	e51b3020 	ldr	r3, [fp, #-32]
c000c0a0:	e2832004 	add	r2, r3, #4
c000c0a4:	e50b2020 	str	r2, [fp, #-32]
c000c0a8:	e5933000 	ldr	r3, [r3]
c000c0ac:	e50b3028 	str	r3, [fp, #-40]	; 0x28
c000c0b0:	e51b3028 	ldr	r3, [fp, #-40]	; 0x28
c000c0b4:	e1a03c03 	lsl	r3, r3, #24
c000c0b8:	e51b204c 	ldr	r2, [fp, #-76]	; 0x4c
c000c0bc:	e1823003 	orr	r3, r2, r3
c000c0c0:	e50b304c 	str	r3, [fp, #-76]	; 0x4c
c000c0c4:	e51b301c 	ldr	r3, [fp, #-28]
c000c0c8:	e2832004 	add	r2, r3, #4
c000c0cc:	e50b201c 	str	r2, [fp, #-28]
c000c0d0:	e51b204c 	ldr	r2, [fp, #-76]	; 0x4c
c000c0d4:	e5832000 	str	r2, [r3]
c000c0d8:	e51b3024 	ldr	r3, [fp, #-36]	; 0x24
c000c0dc:	e2433001 	sub	r3, r3, #1
c000c0e0:	e50b3024 	str	r3, [fp, #-36]	; 0x24
c000c0e4:	e51b3024 	ldr	r3, [fp, #-36]	; 0x24
c000c0e8:	e2033007 	and	r3, r3, #7
c000c0ec:	e3530000 	cmp	r3, #0
c000c0f0:	1affffe6 	bne	c000c090 <memcpy+0x454>
c000c0f4:	e51b3024 	ldr	r3, [fp, #-36]	; 0x24
c000c0f8:	e1a031a3 	lsr	r3, r3, #3
c000c0fc:	e50b3024 	str	r3, [fp, #-36]	; 0x24
c000c100:	ea00007c 	b	c000c2f8 <memcpy+0x6bc>
c000c104:	e51b3028 	ldr	r3, [fp, #-40]	; 0x28
c000c108:	e1a03423 	lsr	r3, r3, #8
c000c10c:	e50b304c 	str	r3, [fp, #-76]	; 0x4c
c000c110:	e51b3020 	ldr	r3, [fp, #-32]
c000c114:	e5933000 	ldr	r3, [r3]
c000c118:	e50b3028 	str	r3, [fp, #-40]	; 0x28
c000c11c:	e51b3028 	ldr	r3, [fp, #-40]	; 0x28
c000c120:	e1a03c03 	lsl	r3, r3, #24
c000c124:	e51b204c 	ldr	r2, [fp, #-76]	; 0x4c
c000c128:	e1823003 	orr	r3, r2, r3
c000c12c:	e50b304c 	str	r3, [fp, #-76]	; 0x4c
c000c130:	e51b301c 	ldr	r3, [fp, #-28]
c000c134:	e51b204c 	ldr	r2, [fp, #-76]	; 0x4c
c000c138:	e5832000 	str	r2, [r3]
c000c13c:	e51b3028 	ldr	r3, [fp, #-40]	; 0x28
c000c140:	e1a03423 	lsr	r3, r3, #8
c000c144:	e50b304c 	str	r3, [fp, #-76]	; 0x4c
c000c148:	e51b3020 	ldr	r3, [fp, #-32]
c000c14c:	e5933004 	ldr	r3, [r3, #4]
c000c150:	e50b3028 	str	r3, [fp, #-40]	; 0x28
c000c154:	e51b3028 	ldr	r3, [fp, #-40]	; 0x28
c000c158:	e1a03c03 	lsl	r3, r3, #24
c000c15c:	e51b204c 	ldr	r2, [fp, #-76]	; 0x4c
c000c160:	e1823003 	orr	r3, r2, r3
c000c164:	e50b304c 	str	r3, [fp, #-76]	; 0x4c
c000c168:	e51b301c 	ldr	r3, [fp, #-28]
c000c16c:	e2833004 	add	r3, r3, #4
c000c170:	e51b204c 	ldr	r2, [fp, #-76]	; 0x4c
c000c174:	e5832000 	str	r2, [r3]
c000c178:	e51b3028 	ldr	r3, [fp, #-40]	; 0x28
c000c17c:	e1a03423 	lsr	r3, r3, #8
c000c180:	e50b304c 	str	r3, [fp, #-76]	; 0x4c
c000c184:	e51b3020 	ldr	r3, [fp, #-32]
c000c188:	e5933008 	ldr	r3, [r3, #8]
c000c18c:	e50b3028 	str	r3, [fp, #-40]	; 0x28
c000c190:	e51b3028 	ldr	r3, [fp, #-40]	; 0x28
c000c194:	e1a03c03 	lsl	r3, r3, #24
c000c198:	e51b204c 	ldr	r2, [fp, #-76]	; 0x4c
c000c19c:	e1823003 	orr	r3, r2, r3
c000c1a0:	e50b304c 	str	r3, [fp, #-76]	; 0x4c
c000c1a4:	e51b301c 	ldr	r3, [fp, #-28]
c000c1a8:	e2833008 	add	r3, r3, #8
c000c1ac:	e51b204c 	ldr	r2, [fp, #-76]	; 0x4c
c000c1b0:	e5832000 	str	r2, [r3]
c000c1b4:	e51b3028 	ldr	r3, [fp, #-40]	; 0x28
c000c1b8:	e1a03423 	lsr	r3, r3, #8
c000c1bc:	e50b304c 	str	r3, [fp, #-76]	; 0x4c
c000c1c0:	e51b3020 	ldr	r3, [fp, #-32]
c000c1c4:	e593300c 	ldr	r3, [r3, #12]
c000c1c8:	e50b3028 	str	r3, [fp, #-40]	; 0x28
c000c1cc:	e51b3028 	ldr	r3, [fp, #-40]	; 0x28
c000c1d0:	e1a03c03 	lsl	r3, r3, #24
c000c1d4:	e51b204c 	ldr	r2, [fp, #-76]	; 0x4c
c000c1d8:	e1823003 	orr	r3, r2, r3
c000c1dc:	e50b304c 	str	r3, [fp, #-76]	; 0x4c
c000c1e0:	e51b301c 	ldr	r3, [fp, #-28]
c000c1e4:	e283300c 	add	r3, r3, #12
c000c1e8:	e51b204c 	ldr	r2, [fp, #-76]	; 0x4c
c000c1ec:	e5832000 	str	r2, [r3]
c000c1f0:	e51b3028 	ldr	r3, [fp, #-40]	; 0x28
c000c1f4:	e1a03423 	lsr	r3, r3, #8
c000c1f8:	e50b304c 	str	r3, [fp, #-76]	; 0x4c
c000c1fc:	e51b3020 	ldr	r3, [fp, #-32]
c000c200:	e5933010 	ldr	r3, [r3, #16]
c000c204:	e50b3028 	str	r3, [fp, #-40]	; 0x28
c000c208:	e51b3028 	ldr	r3, [fp, #-40]	; 0x28
c000c20c:	e1a03c03 	lsl	r3, r3, #24
c000c210:	e51b204c 	ldr	r2, [fp, #-76]	; 0x4c
c000c214:	e1823003 	orr	r3, r2, r3
c000c218:	e50b304c 	str	r3, [fp, #-76]	; 0x4c
c000c21c:	e51b301c 	ldr	r3, [fp, #-28]
c000c220:	e2833010 	add	r3, r3, #16
c000c224:	e51b204c 	ldr	r2, [fp, #-76]	; 0x4c
c000c228:	e5832000 	str	r2, [r3]
c000c22c:	e51b3028 	ldr	r3, [fp, #-40]	; 0x28
c000c230:	e1a03423 	lsr	r3, r3, #8
c000c234:	e50b304c 	str	r3, [fp, #-76]	; 0x4c
c000c238:	e51b3020 	ldr	r3, [fp, #-32]
c000c23c:	e5933014 	ldr	r3, [r3, #20]
c000c240:	e50b3028 	str	r3, [fp, #-40]	; 0x28
c000c244:	e51b3028 	ldr	r3, [fp, #-40]	; 0x28
c000c248:	e1a03c03 	lsl	r3, r3, #24
c000c24c:	e51b204c 	ldr	r2, [fp, #-76]	; 0x4c
c000c250:	e1823003 	orr	r3, r2, r3
c000c254:	e50b304c 	str	r3, [fp, #-76]	; 0x4c
c000c258:	e51b301c 	ldr	r3, [fp, #-28]
c000c25c:	e2833014 	add	r3, r3, #20
c000c260:	e51b204c 	ldr	r2, [fp, #-76]	; 0x4c
c000c264:	e5832000 	str	r2, [r3]
c000c268:	e51b3028 	ldr	r3, [fp, #-40]	; 0x28
c000c26c:	e1a03423 	lsr	r3, r3, #8
c000c270:	e50b304c 	str	r3, [fp, #-76]	; 0x4c
c000c274:	e51b3020 	ldr	r3, [fp, #-32]
c000c278:	e5933018 	ldr	r3, [r3, #24]
c000c27c:	e50b3028 	str	r3, [fp, #-40]	; 0x28
c000c280:	e51b3028 	ldr	r3, [fp, #-40]	; 0x28
c000c284:	e1a03c03 	lsl	r3, r3, #24
c000c288:	e51b204c 	ldr	r2, [fp, #-76]	; 0x4c
c000c28c:	e1823003 	orr	r3, r2, r3
c000c290:	e50b304c 	str	r3, [fp, #-76]	; 0x4c
c000c294:	e51b301c 	ldr	r3, [fp, #-28]
c000c298:	e2833018 	add	r3, r3, #24
c000c29c:	e51b204c 	ldr	r2, [fp, #-76]	; 0x4c
c000c2a0:	e5832000 	str	r2, [r3]
c000c2a4:	e51b3028 	ldr	r3, [fp, #-40]	; 0x28
c000c2a8:	e1a03423 	lsr	r3, r3, #8
c000c2ac:	e50b304c 	str	r3, [fp, #-76]	; 0x4c
c000c2b0:	e51b3020 	ldr	r3, [fp, #-32]
c000c2b4:	e593301c 	ldr	r3, [r3, #28]
c000c2b8:	e50b3028 	str	r3, [fp, #-40]	; 0x28
c000c2bc:	e51b3028 	ldr	r3, [fp, #-40]	; 0x28
c000c2c0:	e1a03c03 	lsl	r3, r3, #24
c000c2c4:	e51b204c 	ldr	r2, [fp, #-76]	; 0x4c
c000c2c8:	e1823003 	orr	r3, r2, r3
c000c2cc:	e50b304c 	str	r3, [fp, #-76]	; 0x4c
c000c2d0:	e51b301c 	ldr	r3, [fp, #-28]
c000c2d4:	e283301c 	add	r3, r3, #28
c000c2d8:	e51b204c 	ldr	r2, [fp, #-76]	; 0x4c
c000c2dc:	e5832000 	str	r2, [r3]
c000c2e0:	e51b301c 	ldr	r3, [fp, #-28]
c000c2e4:	e2833020 	add	r3, r3, #32
c000c2e8:	e50b301c 	str	r3, [fp, #-28]
c000c2ec:	e51b3020 	ldr	r3, [fp, #-32]
c000c2f0:	e2833020 	add	r3, r3, #32
c000c2f4:	e50b3020 	str	r3, [fp, #-32]
c000c2f8:	e51b3024 	ldr	r3, [fp, #-36]	; 0x24
c000c2fc:	e2432001 	sub	r2, r3, #1
c000c300:	e50b2024 	str	r2, [fp, #-36]	; 0x24
c000c304:	e3530000 	cmp	r3, #0
c000c308:	1affff7d 	bne	c000c104 <memcpy+0x4c8>
c000c30c:	e51b3020 	ldr	r3, [fp, #-32]
c000c310:	e2433003 	sub	r3, r3, #3
c000c314:	e50b300c 	str	r3, [fp, #-12]
c000c318:	e51b301c 	ldr	r3, [fp, #-28]
c000c31c:	e50b3008 	str	r3, [fp, #-8]
c000c320:	e51b3060 	ldr	r3, [fp, #-96]	; 0x60
c000c324:	e2033003 	and	r3, r3, #3
c000c328:	e2433001 	sub	r3, r3, #1
c000c32c:	e3530006 	cmp	r3, #6
c000c330:	979ff103 	ldrls	pc, [pc, r3, lsl #2]
c000c334:	ea00003e 	b	c000c434 <memcpy+0x7f8>
c000c338:	c000c414 	andgt	ip, r0, r4, lsl r4
c000c33c:	c000c3f4 	strdgt	ip, [r0], -r4
c000c340:	c000c3d4 	ldrdgt	ip, [r0], -r4
c000c344:	c000c3b4 			; <UNDEFINED> instruction: 0xc000c3b4
c000c348:	c000c394 	mulgt	r0, r4, r3
c000c34c:	c000c374 	andgt	ip, r0, r4, ror r3
c000c350:	c000c354 	andgt	ip, r0, r4, asr r3
c000c354:	e51b3008 	ldr	r3, [fp, #-8]
c000c358:	e2832001 	add	r2, r3, #1
c000c35c:	e50b2008 	str	r2, [fp, #-8]
c000c360:	e51b200c 	ldr	r2, [fp, #-12]
c000c364:	e2821001 	add	r1, r2, #1
c000c368:	e50b100c 	str	r1, [fp, #-12]
c000c36c:	e5d22000 	ldrb	r2, [r2]
c000c370:	e5c32000 	strb	r2, [r3]
c000c374:	e51b3008 	ldr	r3, [fp, #-8]
c000c378:	e2832001 	add	r2, r3, #1
c000c37c:	e50b2008 	str	r2, [fp, #-8]
c000c380:	e51b200c 	ldr	r2, [fp, #-12]
c000c384:	e2821001 	add	r1, r2, #1
c000c388:	e50b100c 	str	r1, [fp, #-12]
c000c38c:	e5d22000 	ldrb	r2, [r2]
c000c390:	e5c32000 	strb	r2, [r3]
c000c394:	e51b3008 	ldr	r3, [fp, #-8]
c000c398:	e2832001 	add	r2, r3, #1
c000c39c:	e50b2008 	str	r2, [fp, #-8]
c000c3a0:	e51b200c 	ldr	r2, [fp, #-12]
c000c3a4:	e2821001 	add	r1, r2, #1
c000c3a8:	e50b100c 	str	r1, [fp, #-12]
c000c3ac:	e5d22000 	ldrb	r2, [r2]
c000c3b0:	e5c32000 	strb	r2, [r3]
c000c3b4:	e51b3008 	ldr	r3, [fp, #-8]
c000c3b8:	e2832001 	add	r2, r3, #1
c000c3bc:	e50b2008 	str	r2, [fp, #-8]
c000c3c0:	e51b200c 	ldr	r2, [fp, #-12]
c000c3c4:	e2821001 	add	r1, r2, #1
c000c3c8:	e50b100c 	str	r1, [fp, #-12]
c000c3cc:	e5d22000 	ldrb	r2, [r2]
c000c3d0:	e5c32000 	strb	r2, [r3]
c000c3d4:	e51b3008 	ldr	r3, [fp, #-8]
c000c3d8:	e2832001 	add	r2, r3, #1
c000c3dc:	e50b2008 	str	r2, [fp, #-8]
c000c3e0:	e51b200c 	ldr	r2, [fp, #-12]
c000c3e4:	e2821001 	add	r1, r2, #1
c000c3e8:	e50b100c 	str	r1, [fp, #-12]
c000c3ec:	e5d22000 	ldrb	r2, [r2]
c000c3f0:	e5c32000 	strb	r2, [r3]
c000c3f4:	e51b3008 	ldr	r3, [fp, #-8]
c000c3f8:	e2832001 	add	r2, r3, #1
c000c3fc:	e50b2008 	str	r2, [fp, #-8]
c000c400:	e51b200c 	ldr	r2, [fp, #-12]
c000c404:	e2821001 	add	r1, r2, #1
c000c408:	e50b100c 	str	r1, [fp, #-12]
c000c40c:	e5d22000 	ldrb	r2, [r2]
c000c410:	e5c32000 	strb	r2, [r3]
c000c414:	e51b3008 	ldr	r3, [fp, #-8]
c000c418:	e2832001 	add	r2, r3, #1
c000c41c:	e50b2008 	str	r2, [fp, #-8]
c000c420:	e51b200c 	ldr	r2, [fp, #-12]
c000c424:	e2821001 	add	r1, r2, #1
c000c428:	e50b100c 	str	r1, [fp, #-12]
c000c42c:	e5d22000 	ldrb	r2, [r2]
c000c430:	e5c32000 	strb	r2, [r3]
c000c434:	e1a00000 	nop			; (mov r0, r0)
c000c438:	e51b3058 	ldr	r3, [fp, #-88]	; 0x58
c000c43c:	ea0001f5 	b	c000cc18 <memcpy+0xfdc>
c000c440:	e51b3008 	ldr	r3, [fp, #-8]
c000c444:	e3c33003 	bic	r3, r3, #3
c000c448:	e50b302c 	str	r3, [fp, #-44]	; 0x2c
c000c44c:	e51b300c 	ldr	r3, [fp, #-12]
c000c450:	e3c33003 	bic	r3, r3, #3
c000c454:	e50b3030 	str	r3, [fp, #-48]	; 0x30
c000c458:	e51b3060 	ldr	r3, [fp, #-96]	; 0x60
c000c45c:	e1a03123 	lsr	r3, r3, #2
c000c460:	e50b3034 	str	r3, [fp, #-52]	; 0x34
c000c464:	e51b3030 	ldr	r3, [fp, #-48]	; 0x30
c000c468:	e2832004 	add	r2, r3, #4
c000c46c:	e50b2030 	str	r2, [fp, #-48]	; 0x30
c000c470:	e5933000 	ldr	r3, [r3]
c000c474:	e50b3038 	str	r3, [fp, #-56]	; 0x38
c000c478:	ea000014 	b	c000c4d0 <memcpy+0x894>
c000c47c:	e51b3038 	ldr	r3, [fp, #-56]	; 0x38
c000c480:	e1a03823 	lsr	r3, r3, #16
c000c484:	e50b3050 	str	r3, [fp, #-80]	; 0x50
c000c488:	e51b3030 	ldr	r3, [fp, #-48]	; 0x30
c000c48c:	e2832004 	add	r2, r3, #4
c000c490:	e50b2030 	str	r2, [fp, #-48]	; 0x30
c000c494:	e5933000 	ldr	r3, [r3]
c000c498:	e50b3038 	str	r3, [fp, #-56]	; 0x38
c000c49c:	e51b3038 	ldr	r3, [fp, #-56]	; 0x38
c000c4a0:	e1a03803 	lsl	r3, r3, #16
c000c4a4:	e51b2050 	ldr	r2, [fp, #-80]	; 0x50
c000c4a8:	e1823003 	orr	r3, r2, r3
c000c4ac:	e50b3050 	str	r3, [fp, #-80]	; 0x50
c000c4b0:	e51b302c 	ldr	r3, [fp, #-44]	; 0x2c
c000c4b4:	e2832004 	add	r2, r3, #4
c000c4b8:	e50b202c 	str	r2, [fp, #-44]	; 0x2c
c000c4bc:	e51b2050 	ldr	r2, [fp, #-80]	; 0x50
c000c4c0:	e5832000 	str	r2, [r3]
c000c4c4:	e51b3034 	ldr	r3, [fp, #-52]	; 0x34
c000c4c8:	e2433001 	sub	r3, r3, #1
c000c4cc:	e50b3034 	str	r3, [fp, #-52]	; 0x34
c000c4d0:	e51b3034 	ldr	r3, [fp, #-52]	; 0x34
c000c4d4:	e2033007 	and	r3, r3, #7
c000c4d8:	e3530000 	cmp	r3, #0
c000c4dc:	1affffe6 	bne	c000c47c <memcpy+0x840>
c000c4e0:	e51b3034 	ldr	r3, [fp, #-52]	; 0x34
c000c4e4:	e1a031a3 	lsr	r3, r3, #3
c000c4e8:	e50b3034 	str	r3, [fp, #-52]	; 0x34
c000c4ec:	ea00007c 	b	c000c6e4 <memcpy+0xaa8>
c000c4f0:	e51b3038 	ldr	r3, [fp, #-56]	; 0x38
c000c4f4:	e1a03823 	lsr	r3, r3, #16
c000c4f8:	e50b3050 	str	r3, [fp, #-80]	; 0x50
c000c4fc:	e51b3030 	ldr	r3, [fp, #-48]	; 0x30
c000c500:	e5933000 	ldr	r3, [r3]
c000c504:	e50b3038 	str	r3, [fp, #-56]	; 0x38
c000c508:	e51b3038 	ldr	r3, [fp, #-56]	; 0x38
c000c50c:	e1a03803 	lsl	r3, r3, #16
c000c510:	e51b2050 	ldr	r2, [fp, #-80]	; 0x50
c000c514:	e1823003 	orr	r3, r2, r3
c000c518:	e50b3050 	str	r3, [fp, #-80]	; 0x50
c000c51c:	e51b302c 	ldr	r3, [fp, #-44]	; 0x2c
c000c520:	e51b2050 	ldr	r2, [fp, #-80]	; 0x50
c000c524:	e5832000 	str	r2, [r3]
c000c528:	e51b3038 	ldr	r3, [fp, #-56]	; 0x38
c000c52c:	e1a03823 	lsr	r3, r3, #16
c000c530:	e50b3050 	str	r3, [fp, #-80]	; 0x50
c000c534:	e51b3030 	ldr	r3, [fp, #-48]	; 0x30
c000c538:	e5933004 	ldr	r3, [r3, #4]
c000c53c:	e50b3038 	str	r3, [fp, #-56]	; 0x38
c000c540:	e51b3038 	ldr	r3, [fp, #-56]	; 0x38
c000c544:	e1a03803 	lsl	r3, r3, #16
c000c548:	e51b2050 	ldr	r2, [fp, #-80]	; 0x50
c000c54c:	e1823003 	orr	r3, r2, r3
c000c550:	e50b3050 	str	r3, [fp, #-80]	; 0x50
c000c554:	e51b302c 	ldr	r3, [fp, #-44]	; 0x2c
c000c558:	e2833004 	add	r3, r3, #4
c000c55c:	e51b2050 	ldr	r2, [fp, #-80]	; 0x50
c000c560:	e5832000 	str	r2, [r3]
c000c564:	e51b3038 	ldr	r3, [fp, #-56]	; 0x38
c000c568:	e1a03823 	lsr	r3, r3, #16
c000c56c:	e50b3050 	str	r3, [fp, #-80]	; 0x50
c000c570:	e51b3030 	ldr	r3, [fp, #-48]	; 0x30
c000c574:	e5933008 	ldr	r3, [r3, #8]
c000c578:	e50b3038 	str	r3, [fp, #-56]	; 0x38
c000c57c:	e51b3038 	ldr	r3, [fp, #-56]	; 0x38
c000c580:	e1a03803 	lsl	r3, r3, #16
c000c584:	e51b2050 	ldr	r2, [fp, #-80]	; 0x50
c000c588:	e1823003 	orr	r3, r2, r3
c000c58c:	e50b3050 	str	r3, [fp, #-80]	; 0x50
c000c590:	e51b302c 	ldr	r3, [fp, #-44]	; 0x2c
c000c594:	e2833008 	add	r3, r3, #8
c000c598:	e51b2050 	ldr	r2, [fp, #-80]	; 0x50
c000c59c:	e5832000 	str	r2, [r3]
c000c5a0:	e51b3038 	ldr	r3, [fp, #-56]	; 0x38
c000c5a4:	e1a03823 	lsr	r3, r3, #16
c000c5a8:	e50b3050 	str	r3, [fp, #-80]	; 0x50
c000c5ac:	e51b3030 	ldr	r3, [fp, #-48]	; 0x30
c000c5b0:	e593300c 	ldr	r3, [r3, #12]
c000c5b4:	e50b3038 	str	r3, [fp, #-56]	; 0x38
c000c5b8:	e51b3038 	ldr	r3, [fp, #-56]	; 0x38
c000c5bc:	e1a03803 	lsl	r3, r3, #16
c000c5c0:	e51b2050 	ldr	r2, [fp, #-80]	; 0x50
c000c5c4:	e1823003 	orr	r3, r2, r3
c000c5c8:	e50b3050 	str	r3, [fp, #-80]	; 0x50
c000c5cc:	e51b302c 	ldr	r3, [fp, #-44]	; 0x2c
c000c5d0:	e283300c 	add	r3, r3, #12
c000c5d4:	e51b2050 	ldr	r2, [fp, #-80]	; 0x50
c000c5d8:	e5832000 	str	r2, [r3]
c000c5dc:	e51b3038 	ldr	r3, [fp, #-56]	; 0x38
c000c5e0:	e1a03823 	lsr	r3, r3, #16
c000c5e4:	e50b3050 	str	r3, [fp, #-80]	; 0x50
c000c5e8:	e51b3030 	ldr	r3, [fp, #-48]	; 0x30
c000c5ec:	e5933010 	ldr	r3, [r3, #16]
c000c5f0:	e50b3038 	str	r3, [fp, #-56]	; 0x38
c000c5f4:	e51b3038 	ldr	r3, [fp, #-56]	; 0x38
c000c5f8:	e1a03803 	lsl	r3, r3, #16
c000c5fc:	e51b2050 	ldr	r2, [fp, #-80]	; 0x50
c000c600:	e1823003 	orr	r3, r2, r3
c000c604:	e50b3050 	str	r3, [fp, #-80]	; 0x50
c000c608:	e51b302c 	ldr	r3, [fp, #-44]	; 0x2c
c000c60c:	e2833010 	add	r3, r3, #16
c000c610:	e51b2050 	ldr	r2, [fp, #-80]	; 0x50
c000c614:	e5832000 	str	r2, [r3]
c000c618:	e51b3038 	ldr	r3, [fp, #-56]	; 0x38
c000c61c:	e1a03823 	lsr	r3, r3, #16
c000c620:	e50b3050 	str	r3, [fp, #-80]	; 0x50
c000c624:	e51b3030 	ldr	r3, [fp, #-48]	; 0x30
c000c628:	e5933014 	ldr	r3, [r3, #20]
c000c62c:	e50b3038 	str	r3, [fp, #-56]	; 0x38
c000c630:	e51b3038 	ldr	r3, [fp, #-56]	; 0x38
c000c634:	e1a03803 	lsl	r3, r3, #16
c000c638:	e51b2050 	ldr	r2, [fp, #-80]	; 0x50
c000c63c:	e1823003 	orr	r3, r2, r3
c000c640:	e50b3050 	str	r3, [fp, #-80]	; 0x50
c000c644:	e51b302c 	ldr	r3, [fp, #-44]	; 0x2c
c000c648:	e2833014 	add	r3, r3, #20
c000c64c:	e51b2050 	ldr	r2, [fp, #-80]	; 0x50
c000c650:	e5832000 	str	r2, [r3]
c000c654:	e51b3038 	ldr	r3, [fp, #-56]	; 0x38
c000c658:	e1a03823 	lsr	r3, r3, #16
c000c65c:	e50b3050 	str	r3, [fp, #-80]	; 0x50
c000c660:	e51b3030 	ldr	r3, [fp, #-48]	; 0x30
c000c664:	e5933018 	ldr	r3, [r3, #24]
c000c668:	e50b3038 	str	r3, [fp, #-56]	; 0x38
c000c66c:	e51b3038 	ldr	r3, [fp, #-56]	; 0x38
c000c670:	e1a03803 	lsl	r3, r3, #16
c000c674:	e51b2050 	ldr	r2, [fp, #-80]	; 0x50
c000c678:	e1823003 	orr	r3, r2, r3
c000c67c:	e50b3050 	str	r3, [fp, #-80]	; 0x50
c000c680:	e51b302c 	ldr	r3, [fp, #-44]	; 0x2c
c000c684:	e2833018 	add	r3, r3, #24
c000c688:	e51b2050 	ldr	r2, [fp, #-80]	; 0x50
c000c68c:	e5832000 	str	r2, [r3]
c000c690:	e51b3038 	ldr	r3, [fp, #-56]	; 0x38
c000c694:	e1a03823 	lsr	r3, r3, #16
c000c698:	e50b3050 	str	r3, [fp, #-80]	; 0x50
c000c69c:	e51b3030 	ldr	r3, [fp, #-48]	; 0x30
c000c6a0:	e593301c 	ldr	r3, [r3, #28]
c000c6a4:	e50b3038 	str	r3, [fp, #-56]	; 0x38
c000c6a8:	e51b3038 	ldr	r3, [fp, #-56]	; 0x38
c000c6ac:	e1a03803 	lsl	r3, r3, #16
c000c6b0:	e51b2050 	ldr	r2, [fp, #-80]	; 0x50
c000c6b4:	e1823003 	orr	r3, r2, r3
c000c6b8:	e50b3050 	str	r3, [fp, #-80]	; 0x50
c000c6bc:	e51b302c 	ldr	r3, [fp, #-44]	; 0x2c
c000c6c0:	e283301c 	add	r3, r3, #28
c000c6c4:	e51b2050 	ldr	r2, [fp, #-80]	; 0x50
c000c6c8:	e5832000 	str	r2, [r3]
c000c6cc:	e51b302c 	ldr	r3, [fp, #-44]	; 0x2c
c000c6d0:	e2833020 	add	r3, r3, #32
c000c6d4:	e50b302c 	str	r3, [fp, #-44]	; 0x2c
c000c6d8:	e51b3030 	ldr	r3, [fp, #-48]	; 0x30
c000c6dc:	e2833020 	add	r3, r3, #32
c000c6e0:	e50b3030 	str	r3, [fp, #-48]	; 0x30
c000c6e4:	e51b3034 	ldr	r3, [fp, #-52]	; 0x34
c000c6e8:	e2432001 	sub	r2, r3, #1
c000c6ec:	e50b2034 	str	r2, [fp, #-52]	; 0x34
c000c6f0:	e3530000 	cmp	r3, #0
c000c6f4:	1affff7d 	bne	c000c4f0 <memcpy+0x8b4>
c000c6f8:	e51b3030 	ldr	r3, [fp, #-48]	; 0x30
c000c6fc:	e2433002 	sub	r3, r3, #2
c000c700:	e50b300c 	str	r3, [fp, #-12]
c000c704:	e51b302c 	ldr	r3, [fp, #-44]	; 0x2c
c000c708:	e50b3008 	str	r3, [fp, #-8]
c000c70c:	e51b3060 	ldr	r3, [fp, #-96]	; 0x60
c000c710:	e2033003 	and	r3, r3, #3
c000c714:	e2433001 	sub	r3, r3, #1
c000c718:	e3530006 	cmp	r3, #6
c000c71c:	979ff103 	ldrls	pc, [pc, r3, lsl #2]
c000c720:	ea00003e 	b	c000c820 <memcpy+0xbe4>
c000c724:	c000c800 	andgt	ip, r0, r0, lsl #16
c000c728:	c000c7e0 	andgt	ip, r0, r0, ror #15
c000c72c:	c000c7c0 	andgt	ip, r0, r0, asr #15
c000c730:	c000c7a0 	andgt	ip, r0, r0, lsr #15
c000c734:	c000c780 	andgt	ip, r0, r0, lsl #15
c000c738:	c000c760 	andgt	ip, r0, r0, ror #14
c000c73c:	c000c740 	andgt	ip, r0, r0, asr #14
c000c740:	e51b3008 	ldr	r3, [fp, #-8]
c000c744:	e2832001 	add	r2, r3, #1
c000c748:	e50b2008 	str	r2, [fp, #-8]
c000c74c:	e51b200c 	ldr	r2, [fp, #-12]
c000c750:	e2821001 	add	r1, r2, #1
c000c754:	e50b100c 	str	r1, [fp, #-12]
c000c758:	e5d22000 	ldrb	r2, [r2]
c000c75c:	e5c32000 	strb	r2, [r3]
c000c760:	e51b3008 	ldr	r3, [fp, #-8]
c000c764:	e2832001 	add	r2, r3, #1
c000c768:	e50b2008 	str	r2, [fp, #-8]
c000c76c:	e51b200c 	ldr	r2, [fp, #-12]
c000c770:	e2821001 	add	r1, r2, #1
c000c774:	e50b100c 	str	r1, [fp, #-12]
c000c778:	e5d22000 	ldrb	r2, [r2]
c000c77c:	e5c32000 	strb	r2, [r3]
c000c780:	e51b3008 	ldr	r3, [fp, #-8]
c000c784:	e2832001 	add	r2, r3, #1
c000c788:	e50b2008 	str	r2, [fp, #-8]
c000c78c:	e51b200c 	ldr	r2, [fp, #-12]
c000c790:	e2821001 	add	r1, r2, #1
c000c794:	e50b100c 	str	r1, [fp, #-12]
c000c798:	e5d22000 	ldrb	r2, [r2]
c000c79c:	e5c32000 	strb	r2, [r3]
c000c7a0:	e51b3008 	ldr	r3, [fp, #-8]
c000c7a4:	e2832001 	add	r2, r3, #1
c000c7a8:	e50b2008 	str	r2, [fp, #-8]
c000c7ac:	e51b200c 	ldr	r2, [fp, #-12]
c000c7b0:	e2821001 	add	r1, r2, #1
c000c7b4:	e50b100c 	str	r1, [fp, #-12]
c000c7b8:	e5d22000 	ldrb	r2, [r2]
c000c7bc:	e5c32000 	strb	r2, [r3]
c000c7c0:	e51b3008 	ldr	r3, [fp, #-8]
c000c7c4:	e2832001 	add	r2, r3, #1
c000c7c8:	e50b2008 	str	r2, [fp, #-8]
c000c7cc:	e51b200c 	ldr	r2, [fp, #-12]
c000c7d0:	e2821001 	add	r1, r2, #1
c000c7d4:	e50b100c 	str	r1, [fp, #-12]
c000c7d8:	e5d22000 	ldrb	r2, [r2]
c000c7dc:	e5c32000 	strb	r2, [r3]
c000c7e0:	e51b3008 	ldr	r3, [fp, #-8]
c000c7e4:	e2832001 	add	r2, r3, #1
c000c7e8:	e50b2008 	str	r2, [fp, #-8]
c000c7ec:	e51b200c 	ldr	r2, [fp, #-12]
c000c7f0:	e2821001 	add	r1, r2, #1
c000c7f4:	e50b100c 	str	r1, [fp, #-12]
c000c7f8:	e5d22000 	ldrb	r2, [r2]
c000c7fc:	e5c32000 	strb	r2, [r3]
c000c800:	e51b3008 	ldr	r3, [fp, #-8]
c000c804:	e2832001 	add	r2, r3, #1
c000c808:	e50b2008 	str	r2, [fp, #-8]
c000c80c:	e51b200c 	ldr	r2, [fp, #-12]
c000c810:	e2821001 	add	r1, r2, #1
c000c814:	e50b100c 	str	r1, [fp, #-12]
c000c818:	e5d22000 	ldrb	r2, [r2]
c000c81c:	e5c32000 	strb	r2, [r3]
c000c820:	e1a00000 	nop			; (mov r0, r0)
c000c824:	e51b3058 	ldr	r3, [fp, #-88]	; 0x58
c000c828:	ea0000fa 	b	c000cc18 <memcpy+0xfdc>
c000c82c:	e51b3008 	ldr	r3, [fp, #-8]
c000c830:	e3c33003 	bic	r3, r3, #3
c000c834:	e50b303c 	str	r3, [fp, #-60]	; 0x3c
c000c838:	e51b300c 	ldr	r3, [fp, #-12]
c000c83c:	e3c33003 	bic	r3, r3, #3
c000c840:	e50b3040 	str	r3, [fp, #-64]	; 0x40
c000c844:	e51b3060 	ldr	r3, [fp, #-96]	; 0x60
c000c848:	e1a03123 	lsr	r3, r3, #2
c000c84c:	e50b3044 	str	r3, [fp, #-68]	; 0x44
c000c850:	e51b3040 	ldr	r3, [fp, #-64]	; 0x40
c000c854:	e2832004 	add	r2, r3, #4
c000c858:	e50b2040 	str	r2, [fp, #-64]	; 0x40
c000c85c:	e5933000 	ldr	r3, [r3]
c000c860:	e50b3048 	str	r3, [fp, #-72]	; 0x48
c000c864:	ea000014 	b	c000c8bc <memcpy+0xc80>
c000c868:	e51b3048 	ldr	r3, [fp, #-72]	; 0x48
c000c86c:	e1a03c23 	lsr	r3, r3, #24
c000c870:	e50b3054 	str	r3, [fp, #-84]	; 0x54
c000c874:	e51b3040 	ldr	r3, [fp, #-64]	; 0x40
c000c878:	e2832004 	add	r2, r3, #4
c000c87c:	e50b2040 	str	r2, [fp, #-64]	; 0x40
c000c880:	e5933000 	ldr	r3, [r3]
c000c884:	e50b3048 	str	r3, [fp, #-72]	; 0x48
c000c888:	e51b3048 	ldr	r3, [fp, #-72]	; 0x48
c000c88c:	e1a03403 	lsl	r3, r3, #8
c000c890:	e51b2054 	ldr	r2, [fp, #-84]	; 0x54
c000c894:	e1823003 	orr	r3, r2, r3
c000c898:	e50b3054 	str	r3, [fp, #-84]	; 0x54
c000c89c:	e51b303c 	ldr	r3, [fp, #-60]	; 0x3c
c000c8a0:	e2832004 	add	r2, r3, #4
c000c8a4:	e50b203c 	str	r2, [fp, #-60]	; 0x3c
c000c8a8:	e51b2054 	ldr	r2, [fp, #-84]	; 0x54
c000c8ac:	e5832000 	str	r2, [r3]
c000c8b0:	e51b3044 	ldr	r3, [fp, #-68]	; 0x44
c000c8b4:	e2433001 	sub	r3, r3, #1
c000c8b8:	e50b3044 	str	r3, [fp, #-68]	; 0x44
c000c8bc:	e51b3044 	ldr	r3, [fp, #-68]	; 0x44
c000c8c0:	e2033007 	and	r3, r3, #7
c000c8c4:	e3530000 	cmp	r3, #0
c000c8c8:	1affffe6 	bne	c000c868 <memcpy+0xc2c>
c000c8cc:	e51b3044 	ldr	r3, [fp, #-68]	; 0x44
c000c8d0:	e1a031a3 	lsr	r3, r3, #3
c000c8d4:	e50b3044 	str	r3, [fp, #-68]	; 0x44
c000c8d8:	ea00007c 	b	c000cad0 <memcpy+0xe94>
c000c8dc:	e51b3048 	ldr	r3, [fp, #-72]	; 0x48
c000c8e0:	e1a03c23 	lsr	r3, r3, #24
c000c8e4:	e50b3054 	str	r3, [fp, #-84]	; 0x54
c000c8e8:	e51b3040 	ldr	r3, [fp, #-64]	; 0x40
c000c8ec:	e5933000 	ldr	r3, [r3]
c000c8f0:	e50b3048 	str	r3, [fp, #-72]	; 0x48
c000c8f4:	e51b3048 	ldr	r3, [fp, #-72]	; 0x48
c000c8f8:	e1a03403 	lsl	r3, r3, #8
c000c8fc:	e51b2054 	ldr	r2, [fp, #-84]	; 0x54
c000c900:	e1823003 	orr	r3, r2, r3
c000c904:	e50b3054 	str	r3, [fp, #-84]	; 0x54
c000c908:	e51b303c 	ldr	r3, [fp, #-60]	; 0x3c
c000c90c:	e51b2054 	ldr	r2, [fp, #-84]	; 0x54
c000c910:	e5832000 	str	r2, [r3]
c000c914:	e51b3048 	ldr	r3, [fp, #-72]	; 0x48
c000c918:	e1a03c23 	lsr	r3, r3, #24
c000c91c:	e50b3054 	str	r3, [fp, #-84]	; 0x54
c000c920:	e51b3040 	ldr	r3, [fp, #-64]	; 0x40
c000c924:	e5933004 	ldr	r3, [r3, #4]
c000c928:	e50b3048 	str	r3, [fp, #-72]	; 0x48
c000c92c:	e51b3048 	ldr	r3, [fp, #-72]	; 0x48
c000c930:	e1a03403 	lsl	r3, r3, #8
c000c934:	e51b2054 	ldr	r2, [fp, #-84]	; 0x54
c000c938:	e1823003 	orr	r3, r2, r3
c000c93c:	e50b3054 	str	r3, [fp, #-84]	; 0x54
c000c940:	e51b303c 	ldr	r3, [fp, #-60]	; 0x3c
c000c944:	e2833004 	add	r3, r3, #4
c000c948:	e51b2054 	ldr	r2, [fp, #-84]	; 0x54
c000c94c:	e5832000 	str	r2, [r3]
c000c950:	e51b3048 	ldr	r3, [fp, #-72]	; 0x48
c000c954:	e1a03c23 	lsr	r3, r3, #24
c000c958:	e50b3054 	str	r3, [fp, #-84]	; 0x54
c000c95c:	e51b3040 	ldr	r3, [fp, #-64]	; 0x40
c000c960:	e5933008 	ldr	r3, [r3, #8]
c000c964:	e50b3048 	str	r3, [fp, #-72]	; 0x48
c000c968:	e51b3048 	ldr	r3, [fp, #-72]	; 0x48
c000c96c:	e1a03403 	lsl	r3, r3, #8
c000c970:	e51b2054 	ldr	r2, [fp, #-84]	; 0x54
c000c974:	e1823003 	orr	r3, r2, r3
c000c978:	e50b3054 	str	r3, [fp, #-84]	; 0x54
c000c97c:	e51b303c 	ldr	r3, [fp, #-60]	; 0x3c
c000c980:	e2833008 	add	r3, r3, #8
c000c984:	e51b2054 	ldr	r2, [fp, #-84]	; 0x54
c000c988:	e5832000 	str	r2, [r3]
c000c98c:	e51b3048 	ldr	r3, [fp, #-72]	; 0x48
c000c990:	e1a03c23 	lsr	r3, r3, #24
c000c994:	e50b3054 	str	r3, [fp, #-84]	; 0x54
c000c998:	e51b3040 	ldr	r3, [fp, #-64]	; 0x40
c000c99c:	e593300c 	ldr	r3, [r3, #12]
c000c9a0:	e50b3048 	str	r3, [fp, #-72]	; 0x48
c000c9a4:	e51b3048 	ldr	r3, [fp, #-72]	; 0x48
c000c9a8:	e1a03403 	lsl	r3, r3, #8
c000c9ac:	e51b2054 	ldr	r2, [fp, #-84]	; 0x54
c000c9b0:	e1823003 	orr	r3, r2, r3
c000c9b4:	e50b3054 	str	r3, [fp, #-84]	; 0x54
c000c9b8:	e51b303c 	ldr	r3, [fp, #-60]	; 0x3c
c000c9bc:	e283300c 	add	r3, r3, #12
c000c9c0:	e51b2054 	ldr	r2, [fp, #-84]	; 0x54
c000c9c4:	e5832000 	str	r2, [r3]
c000c9c8:	e51b3048 	ldr	r3, [fp, #-72]	; 0x48
c000c9cc:	e1a03c23 	lsr	r3, r3, #24
c000c9d0:	e50b3054 	str	r3, [fp, #-84]	; 0x54
c000c9d4:	e51b3040 	ldr	r3, [fp, #-64]	; 0x40
c000c9d8:	e5933010 	ldr	r3, [r3, #16]
c000c9dc:	e50b3048 	str	r3, [fp, #-72]	; 0x48
c000c9e0:	e51b3048 	ldr	r3, [fp, #-72]	; 0x48
c000c9e4:	e1a03403 	lsl	r3, r3, #8
c000c9e8:	e51b2054 	ldr	r2, [fp, #-84]	; 0x54
c000c9ec:	e1823003 	orr	r3, r2, r3
c000c9f0:	e50b3054 	str	r3, [fp, #-84]	; 0x54
c000c9f4:	e51b303c 	ldr	r3, [fp, #-60]	; 0x3c
c000c9f8:	e2833010 	add	r3, r3, #16
c000c9fc:	e51b2054 	ldr	r2, [fp, #-84]	; 0x54
c000ca00:	e5832000 	str	r2, [r3]
c000ca04:	e51b3048 	ldr	r3, [fp, #-72]	; 0x48
c000ca08:	e1a03c23 	lsr	r3, r3, #24
c000ca0c:	e50b3054 	str	r3, [fp, #-84]	; 0x54
c000ca10:	e51b3040 	ldr	r3, [fp, #-64]	; 0x40
c000ca14:	e5933014 	ldr	r3, [r3, #20]
c000ca18:	e50b3048 	str	r3, [fp, #-72]	; 0x48
c000ca1c:	e51b3048 	ldr	r3, [fp, #-72]	; 0x48
c000ca20:	e1a03403 	lsl	r3, r3, #8
c000ca24:	e51b2054 	ldr	r2, [fp, #-84]	; 0x54
c000ca28:	e1823003 	orr	r3, r2, r3
c000ca2c:	e50b3054 	str	r3, [fp, #-84]	; 0x54
c000ca30:	e51b303c 	ldr	r3, [fp, #-60]	; 0x3c
c000ca34:	e2833014 	add	r3, r3, #20
c000ca38:	e51b2054 	ldr	r2, [fp, #-84]	; 0x54
c000ca3c:	e5832000 	str	r2, [r3]
c000ca40:	e51b3048 	ldr	r3, [fp, #-72]	; 0x48
c000ca44:	e1a03c23 	lsr	r3, r3, #24
c000ca48:	e50b3054 	str	r3, [fp, #-84]	; 0x54
c000ca4c:	e51b3040 	ldr	r3, [fp, #-64]	; 0x40
c000ca50:	e5933018 	ldr	r3, [r3, #24]
c000ca54:	e50b3048 	str	r3, [fp, #-72]	; 0x48
c000ca58:	e51b3048 	ldr	r3, [fp, #-72]	; 0x48
c000ca5c:	e1a03403 	lsl	r3, r3, #8
c000ca60:	e51b2054 	ldr	r2, [fp, #-84]	; 0x54
c000ca64:	e1823003 	orr	r3, r2, r3
c000ca68:	e50b3054 	str	r3, [fp, #-84]	; 0x54
c000ca6c:	e51b303c 	ldr	r3, [fp, #-60]	; 0x3c
c000ca70:	e2833018 	add	r3, r3, #24
c000ca74:	e51b2054 	ldr	r2, [fp, #-84]	; 0x54
c000ca78:	e5832000 	str	r2, [r3]
c000ca7c:	e51b3048 	ldr	r3, [fp, #-72]	; 0x48
c000ca80:	e1a03c23 	lsr	r3, r3, #24
c000ca84:	e50b3054 	str	r3, [fp, #-84]	; 0x54
c000ca88:	e51b3040 	ldr	r3, [fp, #-64]	; 0x40
c000ca8c:	e593301c 	ldr	r3, [r3, #28]
c000ca90:	e50b3048 	str	r3, [fp, #-72]	; 0x48
c000ca94:	e51b3048 	ldr	r3, [fp, #-72]	; 0x48
c000ca98:	e1a03403 	lsl	r3, r3, #8
c000ca9c:	e51b2054 	ldr	r2, [fp, #-84]	; 0x54
c000caa0:	e1823003 	orr	r3, r2, r3
c000caa4:	e50b3054 	str	r3, [fp, #-84]	; 0x54
c000caa8:	e51b303c 	ldr	r3, [fp, #-60]	; 0x3c
c000caac:	e283301c 	add	r3, r3, #28
c000cab0:	e51b2054 	ldr	r2, [fp, #-84]	; 0x54
c000cab4:	e5832000 	str	r2, [r3]
c000cab8:	e51b303c 	ldr	r3, [fp, #-60]	; 0x3c
c000cabc:	e2833020 	add	r3, r3, #32
c000cac0:	e50b303c 	str	r3, [fp, #-60]	; 0x3c
c000cac4:	e51b3040 	ldr	r3, [fp, #-64]	; 0x40
c000cac8:	e2833020 	add	r3, r3, #32
c000cacc:	e50b3040 	str	r3, [fp, #-64]	; 0x40
c000cad0:	e51b3044 	ldr	r3, [fp, #-68]	; 0x44
c000cad4:	e2432001 	sub	r2, r3, #1
c000cad8:	e50b2044 	str	r2, [fp, #-68]	; 0x44
c000cadc:	e3530000 	cmp	r3, #0
c000cae0:	1affff7d 	bne	c000c8dc <memcpy+0xca0>
c000cae4:	e51b3040 	ldr	r3, [fp, #-64]	; 0x40
c000cae8:	e2433001 	sub	r3, r3, #1
c000caec:	e50b300c 	str	r3, [fp, #-12]
c000caf0:	e51b303c 	ldr	r3, [fp, #-60]	; 0x3c
c000caf4:	e50b3008 	str	r3, [fp, #-8]
c000caf8:	e51b3060 	ldr	r3, [fp, #-96]	; 0x60
c000cafc:	e2033003 	and	r3, r3, #3
c000cb00:	e2433001 	sub	r3, r3, #1
c000cb04:	e3530006 	cmp	r3, #6
c000cb08:	979ff103 	ldrls	pc, [pc, r3, lsl #2]
c000cb0c:	ea00003e 	b	c000cc0c <memcpy+0xfd0>
c000cb10:	c000cbec 	andgt	ip, r0, ip, ror #23
c000cb14:	c000cbcc 	andgt	ip, r0, ip, asr #23
c000cb18:	c000cbac 	andgt	ip, r0, ip, lsr #23
c000cb1c:	c000cb8c 	andgt	ip, r0, ip, lsl #23
c000cb20:	c000cb6c 	andgt	ip, r0, ip, ror #22
c000cb24:	c000cb4c 	andgt	ip, r0, ip, asr #22
c000cb28:	c000cb2c 	andgt	ip, r0, ip, lsr #22
c000cb2c:	e51b3008 	ldr	r3, [fp, #-8]
c000cb30:	e2832001 	add	r2, r3, #1
c000cb34:	e50b2008 	str	r2, [fp, #-8]
c000cb38:	e51b200c 	ldr	r2, [fp, #-12]
c000cb3c:	e2821001 	add	r1, r2, #1
c000cb40:	e50b100c 	str	r1, [fp, #-12]
c000cb44:	e5d22000 	ldrb	r2, [r2]
c000cb48:	e5c32000 	strb	r2, [r3]
c000cb4c:	e51b3008 	ldr	r3, [fp, #-8]
c000cb50:	e2832001 	add	r2, r3, #1
c000cb54:	e50b2008 	str	r2, [fp, #-8]
c000cb58:	e51b200c 	ldr	r2, [fp, #-12]
c000cb5c:	e2821001 	add	r1, r2, #1
c000cb60:	e50b100c 	str	r1, [fp, #-12]
c000cb64:	e5d22000 	ldrb	r2, [r2]
c000cb68:	e5c32000 	strb	r2, [r3]
c000cb6c:	e51b3008 	ldr	r3, [fp, #-8]
c000cb70:	e2832001 	add	r2, r3, #1
c000cb74:	e50b2008 	str	r2, [fp, #-8]
c000cb78:	e51b200c 	ldr	r2, [fp, #-12]
c000cb7c:	e2821001 	add	r1, r2, #1
c000cb80:	e50b100c 	str	r1, [fp, #-12]
c000cb84:	e5d22000 	ldrb	r2, [r2]
c000cb88:	e5c32000 	strb	r2, [r3]
c000cb8c:	e51b3008 	ldr	r3, [fp, #-8]
c000cb90:	e2832001 	add	r2, r3, #1
c000cb94:	e50b2008 	str	r2, [fp, #-8]
c000cb98:	e51b200c 	ldr	r2, [fp, #-12]
c000cb9c:	e2821001 	add	r1, r2, #1
c000cba0:	e50b100c 	str	r1, [fp, #-12]
c000cba4:	e5d22000 	ldrb	r2, [r2]
c000cba8:	e5c32000 	strb	r2, [r3]
c000cbac:	e51b3008 	ldr	r3, [fp, #-8]
c000cbb0:	e2832001 	add	r2, r3, #1
c000cbb4:	e50b2008 	str	r2, [fp, #-8]
c000cbb8:	e51b200c 	ldr	r2, [fp, #-12]
c000cbbc:	e2821001 	add	r1, r2, #1
c000cbc0:	e50b100c 	str	r1, [fp, #-12]
c000cbc4:	e5d22000 	ldrb	r2, [r2]
c000cbc8:	e5c32000 	strb	r2, [r3]
c000cbcc:	e51b3008 	ldr	r3, [fp, #-8]
c000cbd0:	e2832001 	add	r2, r3, #1
c000cbd4:	e50b2008 	str	r2, [fp, #-8]
c000cbd8:	e51b200c 	ldr	r2, [fp, #-12]
c000cbdc:	e2821001 	add	r1, r2, #1
c000cbe0:	e50b100c 	str	r1, [fp, #-12]
c000cbe4:	e5d22000 	ldrb	r2, [r2]
c000cbe8:	e5c32000 	strb	r2, [r3]
c000cbec:	e51b3008 	ldr	r3, [fp, #-8]
c000cbf0:	e2832001 	add	r2, r3, #1
c000cbf4:	e50b2008 	str	r2, [fp, #-8]
c000cbf8:	e51b200c 	ldr	r2, [fp, #-12]
c000cbfc:	e2821001 	add	r1, r2, #1
c000cc00:	e50b100c 	str	r1, [fp, #-12]
c000cc04:	e5d22000 	ldrb	r2, [r2]
c000cc08:	e5c32000 	strb	r2, [r3]
c000cc0c:	e1a00000 	nop			; (mov r0, r0)
c000cc10:	e51b3058 	ldr	r3, [fp, #-88]	; 0x58
c000cc14:	eaffffff 	b	c000cc18 <memcpy+0xfdc>
c000cc18:	e1a00003 	mov	r0, r3
c000cc1c:	e24bd000 	sub	sp, fp, #0
c000cc20:	e49db004 	pop	{fp}		; (ldr fp, [sp], #4)
c000cc24:	e12fff1e 	bx	lr

c000cc28 <memset>:
c000cc28:	e92d0870 	push	{r4, r5, r6, fp}
c000cc2c:	e28db00c 	add	fp, sp, #12
c000cc30:	e24dd008 	sub	sp, sp, #8
c000cc34:	e50b0010 	str	r0, [fp, #-16]
c000cc38:	e1a03002 	mov	r3, r2
c000cc3c:	e51b5010 	ldr	r5, [fp, #-16]
c000cc40:	e353000b 	cmp	r3, #11
c000cc44:	8a000009 	bhi	c000cc70 <memset+0x48>
c000cc48:	ea000004 	b	c000cc60 <memset+0x38>
c000cc4c:	e1a02005 	mov	r2, r5
c000cc50:	e2825001 	add	r5, r2, #1
c000cc54:	e20100ff 	and	r0, r1, #255	; 0xff
c000cc58:	e5c20000 	strb	r0, [r2]
c000cc5c:	e2433001 	sub	r3, r3, #1
c000cc60:	e3530000 	cmp	r3, #0
c000cc64:	1afffff8 	bne	c000cc4c <memset+0x24>
c000cc68:	e51b3010 	ldr	r3, [fp, #-16]
c000cc6c:	ea000025 	b	c000cd08 <memset+0xe0>
c000cc70:	e20120ff 	and	r2, r1, #255	; 0xff
c000cc74:	e1a06002 	mov	r6, r2
c000cc78:	e3560000 	cmp	r6, #0
c000cc7c:	0a000003 	beq	c000cc90 <memset+0x68>
c000cc80:	e1a02406 	lsl	r2, r6, #8
c000cc84:	e1866002 	orr	r6, r6, r2
c000cc88:	e1a02806 	lsl	r2, r6, #16
c000cc8c:	e1866002 	orr	r6, r6, r2
c000cc90:	e1a02005 	mov	r2, r5
c000cc94:	e2024003 	and	r4, r2, #3
c000cc98:	e3540000 	cmp	r4, #0
c000cc9c:	0a000008 	beq	c000ccc4 <memset+0x9c>
c000cca0:	e2644004 	rsb	r4, r4, #4
c000cca4:	e0643003 	rsb	r3, r4, r3
c000cca8:	e1a02005 	mov	r2, r5
c000ccac:	e2825001 	add	r5, r2, #1
c000ccb0:	e20100ff 	and	r0, r1, #255	; 0xff
c000ccb4:	e5c20000 	strb	r0, [r2]
c000ccb8:	e2444001 	sub	r4, r4, #1
c000ccbc:	e3540000 	cmp	r4, #0
c000ccc0:	1afffff8 	bne	c000cca8 <memset+0x80>
c000ccc4:	e1a04123 	lsr	r4, r3, #2
c000ccc8:	e5856000 	str	r6, [r5]
c000cccc:	e2855004 	add	r5, r5, #4
c000ccd0:	e2444001 	sub	r4, r4, #1
c000ccd4:	e3540000 	cmp	r4, #0
c000ccd8:	1afffffa 	bne	c000ccc8 <memset+0xa0>
c000ccdc:	e2034003 	and	r4, r3, #3
c000cce0:	e3540000 	cmp	r4, #0
c000cce4:	0a000006 	beq	c000cd04 <memset+0xdc>
c000cce8:	e1a03005 	mov	r3, r5
c000ccec:	e2835001 	add	r5, r3, #1
c000ccf0:	e20120ff 	and	r2, r1, #255	; 0xff
c000ccf4:	e5c32000 	strb	r2, [r3]
c000ccf8:	e2444001 	sub	r4, r4, #1
c000ccfc:	e3540000 	cmp	r4, #0
c000cd00:	1afffff8 	bne	c000cce8 <memset+0xc0>
c000cd04:	e51b3010 	ldr	r3, [fp, #-16]
c000cd08:	e1a00003 	mov	r0, r3
c000cd0c:	e24bd00c 	sub	sp, fp, #12
c000cd10:	e8bd0870 	pop	{r4, r5, r6, fp}
c000cd14:	e12fff1e 	bx	lr

c000cd18 <ls_bit>:
c000cd18:	e52db004 	push	{fp}		; (str fp, [sp, #-4]!)
c000cd1c:	e28db000 	add	fp, sp, #0
c000cd20:	e24dd014 	sub	sp, sp, #20
c000cd24:	e50b0010 	str	r0, [fp, #-16]
c000cd28:	e51b3010 	ldr	r3, [fp, #-16]
c000cd2c:	e2632000 	rsb	r2, r3, #0
c000cd30:	e51b3010 	ldr	r3, [fp, #-16]
c000cd34:	e0023003 	and	r3, r2, r3
c000cd38:	e50b3008 	str	r3, [fp, #-8]
c000cd3c:	e51b3008 	ldr	r3, [fp, #-8]
c000cd40:	e3530801 	cmp	r3, #65536	; 0x10000
c000cd44:	2a000006 	bcs	c000cd64 <ls_bit+0x4c>
c000cd48:	e51b3008 	ldr	r3, [fp, #-8]
c000cd4c:	e35300ff 	cmp	r3, #255	; 0xff
c000cd50:	8a000001 	bhi	c000cd5c <ls_bit+0x44>
c000cd54:	e3a03000 	mov	r3, #0
c000cd58:	ea000007 	b	c000cd7c <ls_bit+0x64>
c000cd5c:	e3a03008 	mov	r3, #8
c000cd60:	ea000005 	b	c000cd7c <ls_bit+0x64>
c000cd64:	e51b3008 	ldr	r3, [fp, #-8]
c000cd68:	e3530401 	cmp	r3, #16777216	; 0x1000000
c000cd6c:	2a000001 	bcs	c000cd78 <ls_bit+0x60>
c000cd70:	e3a03010 	mov	r3, #16
c000cd74:	ea000000 	b	c000cd7c <ls_bit+0x64>
c000cd78:	e3a03018 	mov	r3, #24
c000cd7c:	e50b300c 	str	r3, [fp, #-12]
c000cd80:	e51b300c 	ldr	r3, [fp, #-12]
c000cd84:	e51b2008 	ldr	r2, [fp, #-8]
c000cd88:	e1a02332 	lsr	r2, r2, r3
c000cd8c:	e59f301c 	ldr	r3, [pc, #28]	; c000cdb0 <ls_bit+0x98>
c000cd90:	e7933102 	ldr	r3, [r3, r2, lsl #2]
c000cd94:	e1a02003 	mov	r2, r3
c000cd98:	e51b300c 	ldr	r3, [fp, #-12]
c000cd9c:	e0823003 	add	r3, r2, r3
c000cda0:	e1a00003 	mov	r0, r3
c000cda4:	e24bd000 	sub	sp, fp, #0
c000cda8:	e49db004 	pop	{fp}		; (ldr fp, [sp], #4)
c000cdac:	e12fff1e 	bx	lr
c000cdb0:	c000eee8 	andgt	lr, r0, r8, ror #29

c000cdb4 <ms_bit>:
c000cdb4:	e52db004 	push	{fp}		; (str fp, [sp, #-4]!)
c000cdb8:	e28db000 	add	fp, sp, #0
c000cdbc:	e24dd014 	sub	sp, sp, #20
c000cdc0:	e50b0010 	str	r0, [fp, #-16]
c000cdc4:	e51b3010 	ldr	r3, [fp, #-16]
c000cdc8:	e50b3008 	str	r3, [fp, #-8]
c000cdcc:	e51b3008 	ldr	r3, [fp, #-8]
c000cdd0:	e3530801 	cmp	r3, #65536	; 0x10000
c000cdd4:	2a000006 	bcs	c000cdf4 <ms_bit+0x40>
c000cdd8:	e51b3008 	ldr	r3, [fp, #-8]
c000cddc:	e35300ff 	cmp	r3, #255	; 0xff
c000cde0:	8a000001 	bhi	c000cdec <ms_bit+0x38>
c000cde4:	e3a03000 	mov	r3, #0
c000cde8:	ea000007 	b	c000ce0c <ms_bit+0x58>
c000cdec:	e3a03008 	mov	r3, #8
c000cdf0:	ea000005 	b	c000ce0c <ms_bit+0x58>
c000cdf4:	e51b3008 	ldr	r3, [fp, #-8]
c000cdf8:	e3530401 	cmp	r3, #16777216	; 0x1000000
c000cdfc:	2a000001 	bcs	c000ce08 <ms_bit+0x54>
c000ce00:	e3a03010 	mov	r3, #16
c000ce04:	ea000000 	b	c000ce0c <ms_bit+0x58>
c000ce08:	e3a03018 	mov	r3, #24
c000ce0c:	e50b300c 	str	r3, [fp, #-12]
c000ce10:	e51b300c 	ldr	r3, [fp, #-12]
c000ce14:	e51b2008 	ldr	r2, [fp, #-8]
c000ce18:	e1a02332 	lsr	r2, r2, r3
c000ce1c:	e59f301c 	ldr	r3, [pc, #28]	; c000ce40 <ms_bit+0x8c>
c000ce20:	e7933102 	ldr	r3, [r3, r2, lsl #2]
c000ce24:	e1a02003 	mov	r2, r3
c000ce28:	e51b300c 	ldr	r3, [fp, #-12]
c000ce2c:	e0823003 	add	r3, r2, r3
c000ce30:	e1a00003 	mov	r0, r3
c000ce34:	e24bd000 	sub	sp, fp, #0
c000ce38:	e49db004 	pop	{fp}		; (ldr fp, [sp], #4)
c000ce3c:	e12fff1e 	bx	lr
c000ce40:	c000eee8 	andgt	lr, r0, r8, ror #29

c000ce44 <set_bit>:
c000ce44:	e52db004 	push	{fp}		; (str fp, [sp, #-4]!)
c000ce48:	e28db000 	add	fp, sp, #0
c000ce4c:	e24dd00c 	sub	sp, sp, #12
c000ce50:	e50b0008 	str	r0, [fp, #-8]
c000ce54:	e50b100c 	str	r1, [fp, #-12]
c000ce58:	e51b3008 	ldr	r3, [fp, #-8]
c000ce5c:	e1a032c3 	asr	r3, r3, #5
c000ce60:	e1a03103 	lsl	r3, r3, #2
c000ce64:	e51b200c 	ldr	r2, [fp, #-12]
c000ce68:	e0823003 	add	r3, r2, r3
c000ce6c:	e51b2008 	ldr	r2, [fp, #-8]
c000ce70:	e1a022c2 	asr	r2, r2, #5
c000ce74:	e1a02102 	lsl	r2, r2, #2
c000ce78:	e51b100c 	ldr	r1, [fp, #-12]
c000ce7c:	e0812002 	add	r2, r1, r2
c000ce80:	e5921000 	ldr	r1, [r2]
c000ce84:	e51b2008 	ldr	r2, [fp, #-8]
c000ce88:	e202201f 	and	r2, r2, #31
c000ce8c:	e3a00001 	mov	r0, #1
c000ce90:	e1a02210 	lsl	r2, r0, r2
c000ce94:	e1812002 	orr	r2, r1, r2
c000ce98:	e5832000 	str	r2, [r3]
c000ce9c:	e24bd000 	sub	sp, fp, #0
c000cea0:	e49db004 	pop	{fp}		; (ldr fp, [sp], #4)
c000cea4:	e12fff1e 	bx	lr

c000cea8 <clear_bit>:
c000cea8:	e52db004 	push	{fp}		; (str fp, [sp, #-4]!)
c000ceac:	e28db000 	add	fp, sp, #0
c000ceb0:	e24dd00c 	sub	sp, sp, #12
c000ceb4:	e50b0008 	str	r0, [fp, #-8]
c000ceb8:	e50b100c 	str	r1, [fp, #-12]
c000cebc:	e51b3008 	ldr	r3, [fp, #-8]
c000cec0:	e1a032c3 	asr	r3, r3, #5
c000cec4:	e1a03103 	lsl	r3, r3, #2
c000cec8:	e51b200c 	ldr	r2, [fp, #-12]
c000cecc:	e0823003 	add	r3, r2, r3
c000ced0:	e51b2008 	ldr	r2, [fp, #-8]
c000ced4:	e1a022c2 	asr	r2, r2, #5
c000ced8:	e1a02102 	lsl	r2, r2, #2
c000cedc:	e51b100c 	ldr	r1, [fp, #-12]
c000cee0:	e0812002 	add	r2, r1, r2
c000cee4:	e5921000 	ldr	r1, [r2]
c000cee8:	e51b2008 	ldr	r2, [fp, #-8]
c000ceec:	e202201f 	and	r2, r2, #31
c000cef0:	e3a00001 	mov	r0, #1
c000cef4:	e1a02210 	lsl	r2, r0, r2
c000cef8:	e1e02002 	mvn	r2, r2
c000cefc:	e0012002 	and	r2, r1, r2
c000cf00:	e5832000 	str	r2, [r3]
c000cf04:	e24bd000 	sub	sp, fp, #0
c000cf08:	e49db004 	pop	{fp}		; (ldr fp, [sp], #4)
c000cf0c:	e12fff1e 	bx	lr

c000cf10 <MAPPING_SEARCH>:
c000cf10:	e92d4800 	push	{fp, lr}
c000cf14:	e28db004 	add	fp, sp, #4
c000cf18:	e24dd018 	sub	sp, sp, #24
c000cf1c:	e50b0010 	str	r0, [fp, #-16]
c000cf20:	e50b1014 	str	r1, [fp, #-20]
c000cf24:	e50b2018 	str	r2, [fp, #-24]
c000cf28:	e51b3010 	ldr	r3, [fp, #-16]
c000cf2c:	e5933000 	ldr	r3, [r3]
c000cf30:	e353007f 	cmp	r3, #127	; 0x7f
c000cf34:	8a000009 	bhi	c000cf60 <MAPPING_SEARCH+0x50>
c000cf38:	e51b3014 	ldr	r3, [fp, #-20]
c000cf3c:	e3a02000 	mov	r2, #0
c000cf40:	e5832000 	str	r2, [r3]
c000cf44:	e51b3010 	ldr	r3, [fp, #-16]
c000cf48:	e5933000 	ldr	r3, [r3]
c000cf4c:	e1a03123 	lsr	r3, r3, #2
c000cf50:	e1a02003 	mov	r2, r3
c000cf54:	e51b3018 	ldr	r3, [fp, #-24]
c000cf58:	e5832000 	str	r2, [r3]
c000cf5c:	ea00002c 	b	c000d014 <MAPPING_SEARCH+0x104>
c000cf60:	e51b3010 	ldr	r3, [fp, #-16]
c000cf64:	e5933000 	ldr	r3, [r3]
c000cf68:	e1a00003 	mov	r0, r3
c000cf6c:	ebffff90 	bl	c000cdb4 <ms_bit>
c000cf70:	e1a03000 	mov	r3, r0
c000cf74:	e2433005 	sub	r3, r3, #5
c000cf78:	e3a02001 	mov	r2, #1
c000cf7c:	e1a03312 	lsl	r3, r2, r3
c000cf80:	e2433001 	sub	r3, r3, #1
c000cf84:	e50b3008 	str	r3, [fp, #-8]
c000cf88:	e51b3010 	ldr	r3, [fp, #-16]
c000cf8c:	e5932000 	ldr	r2, [r3]
c000cf90:	e51b3008 	ldr	r3, [fp, #-8]
c000cf94:	e0822003 	add	r2, r2, r3
c000cf98:	e51b3010 	ldr	r3, [fp, #-16]
c000cf9c:	e5832000 	str	r2, [r3]
c000cfa0:	e51b3010 	ldr	r3, [fp, #-16]
c000cfa4:	e5933000 	ldr	r3, [r3]
c000cfa8:	e1a00003 	mov	r0, r3
c000cfac:	ebffff80 	bl	c000cdb4 <ms_bit>
c000cfb0:	e1a02000 	mov	r2, r0
c000cfb4:	e51b3014 	ldr	r3, [fp, #-20]
c000cfb8:	e5832000 	str	r2, [r3]
c000cfbc:	e51b3010 	ldr	r3, [fp, #-16]
c000cfc0:	e5932000 	ldr	r2, [r3]
c000cfc4:	e51b3014 	ldr	r3, [fp, #-20]
c000cfc8:	e5933000 	ldr	r3, [r3]
c000cfcc:	e2433005 	sub	r3, r3, #5
c000cfd0:	e1a03332 	lsr	r3, r2, r3
c000cfd4:	e2433020 	sub	r3, r3, #32
c000cfd8:	e1a02003 	mov	r2, r3
c000cfdc:	e51b3018 	ldr	r3, [fp, #-24]
c000cfe0:	e5832000 	str	r2, [r3]
c000cfe4:	e51b3014 	ldr	r3, [fp, #-20]
c000cfe8:	e5933000 	ldr	r3, [r3]
c000cfec:	e2432006 	sub	r2, r3, #6
c000cff0:	e51b3014 	ldr	r3, [fp, #-20]
c000cff4:	e5832000 	str	r2, [r3]
c000cff8:	e51b3010 	ldr	r3, [fp, #-16]
c000cffc:	e5932000 	ldr	r2, [r3]
c000d000:	e51b3008 	ldr	r3, [fp, #-8]
c000d004:	e1e03003 	mvn	r3, r3
c000d008:	e0022003 	and	r2, r2, r3
c000d00c:	e51b3010 	ldr	r3, [fp, #-16]
c000d010:	e5832000 	str	r2, [r3]
c000d014:	e24bd004 	sub	sp, fp, #4
c000d018:	e8bd4800 	pop	{fp, lr}
c000d01c:	e12fff1e 	bx	lr

c000d020 <MAPPING_INSERT>:
c000d020:	e92d4800 	push	{fp, lr}
c000d024:	e28db004 	add	fp, sp, #4
c000d028:	e24dd010 	sub	sp, sp, #16
c000d02c:	e50b0008 	str	r0, [fp, #-8]
c000d030:	e50b100c 	str	r1, [fp, #-12]
c000d034:	e50b2010 	str	r2, [fp, #-16]
c000d038:	e51b3008 	ldr	r3, [fp, #-8]
c000d03c:	e353007f 	cmp	r3, #127	; 0x7f
c000d040:	8a000008 	bhi	c000d068 <MAPPING_INSERT+0x48>
c000d044:	e51b300c 	ldr	r3, [fp, #-12]
c000d048:	e3a02000 	mov	r2, #0
c000d04c:	e5832000 	str	r2, [r3]
c000d050:	e51b3008 	ldr	r3, [fp, #-8]
c000d054:	e1a03123 	lsr	r3, r3, #2
c000d058:	e1a02003 	mov	r2, r3
c000d05c:	e51b3010 	ldr	r3, [fp, #-16]
c000d060:	e5832000 	str	r2, [r3]
c000d064:	ea000013 	b	c000d0b8 <MAPPING_INSERT+0x98>
c000d068:	e51b3008 	ldr	r3, [fp, #-8]
c000d06c:	e1a00003 	mov	r0, r3
c000d070:	ebffff4f 	bl	c000cdb4 <ms_bit>
c000d074:	e1a02000 	mov	r2, r0
c000d078:	e51b300c 	ldr	r3, [fp, #-12]
c000d07c:	e5832000 	str	r2, [r3]
c000d080:	e51b300c 	ldr	r3, [fp, #-12]
c000d084:	e5933000 	ldr	r3, [r3]
c000d088:	e2433005 	sub	r3, r3, #5
c000d08c:	e51b2008 	ldr	r2, [fp, #-8]
c000d090:	e1a03332 	lsr	r3, r2, r3
c000d094:	e2433020 	sub	r3, r3, #32
c000d098:	e1a02003 	mov	r2, r3
c000d09c:	e51b3010 	ldr	r3, [fp, #-16]
c000d0a0:	e5832000 	str	r2, [r3]
c000d0a4:	e51b300c 	ldr	r3, [fp, #-12]
c000d0a8:	e5933000 	ldr	r3, [r3]
c000d0ac:	e2432006 	sub	r2, r3, #6
c000d0b0:	e51b300c 	ldr	r3, [fp, #-12]
c000d0b4:	e5832000 	str	r2, [r3]
c000d0b8:	e24bd004 	sub	sp, fp, #4
c000d0bc:	e8bd4800 	pop	{fp, lr}
c000d0c0:	e12fff1e 	bx	lr

c000d0c4 <FIND_SUITABLE_BLOCK>:
c000d0c4:	e92d4800 	push	{fp, lr}
c000d0c8:	e28db004 	add	fp, sp, #4
c000d0cc:	e24dd018 	sub	sp, sp, #24
c000d0d0:	e50b0010 	str	r0, [fp, #-16]
c000d0d4:	e50b1014 	str	r1, [fp, #-20]
c000d0d8:	e50b2018 	str	r2, [fp, #-24]
c000d0dc:	e51b3014 	ldr	r3, [fp, #-20]
c000d0e0:	e5933000 	ldr	r3, [r3]
c000d0e4:	e51b1010 	ldr	r1, [fp, #-16]
c000d0e8:	e2832002 	add	r2, r3, #2
c000d0ec:	e3a03004 	mov	r3, #4
c000d0f0:	e1a02102 	lsl	r2, r2, #2
c000d0f4:	e0812002 	add	r2, r1, r2
c000d0f8:	e0823003 	add	r3, r2, r3
c000d0fc:	e5932000 	ldr	r2, [r3]
c000d100:	e51b3018 	ldr	r3, [fp, #-24]
c000d104:	e5933000 	ldr	r3, [r3]
c000d108:	e3e01000 	mvn	r1, #0
c000d10c:	e1a03311 	lsl	r3, r1, r3
c000d110:	e0023003 	and	r3, r2, r3
c000d114:	e50b300c 	str	r3, [fp, #-12]
c000d118:	e3a03000 	mov	r3, #0
c000d11c:	e50b3008 	str	r3, [fp, #-8]
c000d120:	e51b300c 	ldr	r3, [fp, #-12]
c000d124:	e3530000 	cmp	r3, #0
c000d128:	0a000014 	beq	c000d180 <FIND_SUITABLE_BLOCK+0xbc>
c000d12c:	e51b300c 	ldr	r3, [fp, #-12]
c000d130:	e1a00003 	mov	r0, r3
c000d134:	ebfffef7 	bl	c000cd18 <ls_bit>
c000d138:	e1a02000 	mov	r2, r0
c000d13c:	e51b3018 	ldr	r3, [fp, #-24]
c000d140:	e5832000 	str	r2, [r3]
c000d144:	e51b3014 	ldr	r3, [fp, #-20]
c000d148:	e5932000 	ldr	r2, [r3]
c000d14c:	e51b3018 	ldr	r3, [fp, #-24]
c000d150:	e5933000 	ldr	r3, [r3]
c000d154:	e51b1010 	ldr	r1, [fp, #-16]
c000d158:	e1a02282 	lsl	r2, r2, #5
c000d15c:	e0823003 	add	r3, r2, r3
c000d160:	e283201a 	add	r2, r3, #26
c000d164:	e3a03004 	mov	r3, #4
c000d168:	e1a02102 	lsl	r2, r2, #2
c000d16c:	e0812002 	add	r2, r1, r2
c000d170:	e0823003 	add	r3, r2, r3
c000d174:	e5933000 	ldr	r3, [r3]
c000d178:	e50b3008 	str	r3, [fp, #-8]
c000d17c:	ea00002c 	b	c000d234 <FIND_SUITABLE_BLOCK+0x170>
c000d180:	e51b3010 	ldr	r3, [fp, #-16]
c000d184:	e5932008 	ldr	r2, [r3, #8]
c000d188:	e51b3014 	ldr	r3, [fp, #-20]
c000d18c:	e5933000 	ldr	r3, [r3]
c000d190:	e2833001 	add	r3, r3, #1
c000d194:	e3e01000 	mvn	r1, #0
c000d198:	e1a03311 	lsl	r3, r1, r3
c000d19c:	e0023003 	and	r3, r2, r3
c000d1a0:	e1a00003 	mov	r0, r3
c000d1a4:	ebfffedb 	bl	c000cd18 <ls_bit>
c000d1a8:	e1a02000 	mov	r2, r0
c000d1ac:	e51b3014 	ldr	r3, [fp, #-20]
c000d1b0:	e5832000 	str	r2, [r3]
c000d1b4:	e51b3014 	ldr	r3, [fp, #-20]
c000d1b8:	e5933000 	ldr	r3, [r3]
c000d1bc:	e3530000 	cmp	r3, #0
c000d1c0:	da00001b 	ble	c000d234 <FIND_SUITABLE_BLOCK+0x170>
c000d1c4:	e51b3014 	ldr	r3, [fp, #-20]
c000d1c8:	e5933000 	ldr	r3, [r3]
c000d1cc:	e51b1010 	ldr	r1, [fp, #-16]
c000d1d0:	e2832002 	add	r2, r3, #2
c000d1d4:	e3a03004 	mov	r3, #4
c000d1d8:	e1a02102 	lsl	r2, r2, #2
c000d1dc:	e0812002 	add	r2, r1, r2
c000d1e0:	e0823003 	add	r3, r2, r3
c000d1e4:	e5933000 	ldr	r3, [r3]
c000d1e8:	e1a00003 	mov	r0, r3
c000d1ec:	ebfffec9 	bl	c000cd18 <ls_bit>
c000d1f0:	e1a02000 	mov	r2, r0
c000d1f4:	e51b3018 	ldr	r3, [fp, #-24]
c000d1f8:	e5832000 	str	r2, [r3]
c000d1fc:	e51b3014 	ldr	r3, [fp, #-20]
c000d200:	e5932000 	ldr	r2, [r3]
c000d204:	e51b3018 	ldr	r3, [fp, #-24]
c000d208:	e5933000 	ldr	r3, [r3]
c000d20c:	e51b1010 	ldr	r1, [fp, #-16]
c000d210:	e1a02282 	lsl	r2, r2, #5
c000d214:	e0823003 	add	r3, r2, r3
c000d218:	e283201a 	add	r2, r3, #26
c000d21c:	e3a03004 	mov	r3, #4
c000d220:	e1a02102 	lsl	r2, r2, #2
c000d224:	e0812002 	add	r2, r1, r2
c000d228:	e0823003 	add	r3, r2, r3
c000d22c:	e5933000 	ldr	r3, [r3]
c000d230:	e50b3008 	str	r3, [fp, #-8]
c000d234:	e51b3008 	ldr	r3, [fp, #-8]
c000d238:	e1a00003 	mov	r0, r3
c000d23c:	e24bd004 	sub	sp, fp, #4
c000d240:	e8bd4800 	pop	{fp, lr}
c000d244:	e12fff1e 	bx	lr

c000d248 <process_area>:
c000d248:	e52db004 	push	{fp}		; (str fp, [sp, #-4]!)
c000d24c:	e28db000 	add	fp, sp, #0
c000d250:	e24dd01c 	sub	sp, sp, #28
c000d254:	e50b0018 	str	r0, [fp, #-24]
c000d258:	e50b101c 	str	r1, [fp, #-28]
c000d25c:	e51b3018 	ldr	r3, [fp, #-24]
c000d260:	e50b3008 	str	r3, [fp, #-8]
c000d264:	e51b3008 	ldr	r3, [fp, #-8]
c000d268:	e3a02008 	mov	r2, #8
c000d26c:	e5832004 	str	r2, [r3, #4]
c000d270:	e51b3008 	ldr	r3, [fp, #-8]
c000d274:	e5933004 	ldr	r3, [r3, #4]
c000d278:	e3c33003 	bic	r3, r3, #3
c000d27c:	e2833008 	add	r3, r3, #8
c000d280:	e51b2008 	ldr	r2, [fp, #-8]
c000d284:	e0823003 	add	r3, r2, r3
c000d288:	e50b300c 	str	r3, [fp, #-12]
c000d28c:	e51b3008 	ldr	r3, [fp, #-8]
c000d290:	e5933004 	ldr	r3, [r3, #4]
c000d294:	e3c33003 	bic	r3, r3, #3
c000d298:	e51b201c 	ldr	r2, [fp, #-28]
c000d29c:	e0633002 	rsb	r3, r3, r2
c000d2a0:	e2433018 	sub	r3, r3, #24
c000d2a4:	e3c32007 	bic	r2, r3, #7
c000d2a8:	e51b300c 	ldr	r3, [fp, #-12]
c000d2ac:	e5832004 	str	r2, [r3, #4]
c000d2b0:	e51b300c 	ldr	r3, [fp, #-12]
c000d2b4:	e3a02000 	mov	r2, #0
c000d2b8:	e583200c 	str	r2, [r3, #12]
c000d2bc:	e51b300c 	ldr	r3, [fp, #-12]
c000d2c0:	e593200c 	ldr	r2, [r3, #12]
c000d2c4:	e51b300c 	ldr	r3, [fp, #-12]
c000d2c8:	e5832008 	str	r2, [r3, #8]
c000d2cc:	e51b300c 	ldr	r3, [fp, #-12]
c000d2d0:	e5933004 	ldr	r3, [r3, #4]
c000d2d4:	e3c33003 	bic	r3, r3, #3
c000d2d8:	e2833008 	add	r3, r3, #8
c000d2dc:	e51b200c 	ldr	r2, [fp, #-12]
c000d2e0:	e0823003 	add	r3, r2, r3
c000d2e4:	e50b3010 	str	r3, [fp, #-16]
c000d2e8:	e51b3010 	ldr	r3, [fp, #-16]
c000d2ec:	e51b200c 	ldr	r2, [fp, #-12]
c000d2f0:	e5832000 	str	r2, [r3]
c000d2f4:	e51b3010 	ldr	r3, [fp, #-16]
c000d2f8:	e3a02002 	mov	r2, #2
c000d2fc:	e5832004 	str	r2, [r3, #4]
c000d300:	e51b3008 	ldr	r3, [fp, #-8]
c000d304:	e2833008 	add	r3, r3, #8
c000d308:	e50b3014 	str	r3, [fp, #-20]
c000d30c:	e51b3014 	ldr	r3, [fp, #-20]
c000d310:	e3a02000 	mov	r2, #0
c000d314:	e5832004 	str	r2, [r3, #4]
c000d318:	e51b3014 	ldr	r3, [fp, #-20]
c000d31c:	e51b2010 	ldr	r2, [fp, #-16]
c000d320:	e5832000 	str	r2, [r3]
c000d324:	e51b3008 	ldr	r3, [fp, #-8]
c000d328:	e1a00003 	mov	r0, r3
c000d32c:	e24bd000 	sub	sp, fp, #0
c000d330:	e49db004 	pop	{fp}		; (ldr fp, [sp], #4)
c000d334:	e12fff1e 	bx	lr

c000d338 <init_memory_pool>:
c000d338:	e92d4800 	push	{fp, lr}
c000d33c:	e28db004 	add	fp, sp, #4
c000d340:	e24dd018 	sub	sp, sp, #24
c000d344:	e50b0018 	str	r0, [fp, #-24]
c000d348:	e50b101c 	str	r1, [fp, #-28]
c000d34c:	e51b301c 	ldr	r3, [fp, #-28]
c000d350:	e3530000 	cmp	r3, #0
c000d354:	0a000006 	beq	c000d374 <init_memory_pool+0x3c>
c000d358:	e51b3018 	ldr	r3, [fp, #-24]
c000d35c:	e3530000 	cmp	r3, #0
c000d360:	0a000003 	beq	c000d374 <init_memory_pool+0x3c>
c000d364:	e51b2018 	ldr	r2, [fp, #-24]
c000d368:	e59f3118 	ldr	r3, [pc, #280]	; c000d488 <init_memory_pool+0x150>
c000d36c:	e1520003 	cmp	r2, r3
c000d370:	8a000001 	bhi	c000d37c <init_memory_pool+0x44>
c000d374:	e3e03000 	mvn	r3, #0
c000d378:	ea00003e 	b	c000d478 <init_memory_pool+0x140>
c000d37c:	e51b301c 	ldr	r3, [fp, #-28]
c000d380:	e2033003 	and	r3, r3, #3
c000d384:	e3530000 	cmp	r3, #0
c000d388:	0a000001 	beq	c000d394 <init_memory_pool+0x5c>
c000d38c:	e3e03000 	mvn	r3, #0
c000d390:	ea000038 	b	c000d478 <init_memory_pool+0x140>
c000d394:	e51b301c 	ldr	r3, [fp, #-28]
c000d398:	e50b3008 	str	r3, [fp, #-8]
c000d39c:	e51b3008 	ldr	r3, [fp, #-8]
c000d3a0:	e5932000 	ldr	r2, [r3]
c000d3a4:	e59f30e0 	ldr	r3, [pc, #224]	; c000d48c <init_memory_pool+0x154>
c000d3a8:	e1520003 	cmp	r2, r3
c000d3ac:	1a00000a 	bne	c000d3dc <init_memory_pool+0xa4>
c000d3b0:	e59f30d8 	ldr	r3, [pc, #216]	; c000d490 <init_memory_pool+0x158>
c000d3b4:	e51b201c 	ldr	r2, [fp, #-28]
c000d3b8:	e5832000 	str	r2, [r3]
c000d3bc:	e59f30cc 	ldr	r3, [pc, #204]	; c000d490 <init_memory_pool+0x158>
c000d3c0:	e5933000 	ldr	r3, [r3]
c000d3c4:	e2833ec7 	add	r3, r3, #3184	; 0xc70
c000d3c8:	e50b300c 	str	r3, [fp, #-12]
c000d3cc:	e51b300c 	ldr	r3, [fp, #-12]
c000d3d0:	e5933004 	ldr	r3, [r3, #4]
c000d3d4:	e3c33003 	bic	r3, r3, #3
c000d3d8:	ea000026 	b	c000d478 <init_memory_pool+0x140>
c000d3dc:	e59f30ac 	ldr	r3, [pc, #172]	; c000d490 <init_memory_pool+0x158>
c000d3e0:	e51b201c 	ldr	r2, [fp, #-28]
c000d3e4:	e5832000 	str	r2, [r3]
c000d3e8:	e51b001c 	ldr	r0, [fp, #-28]
c000d3ec:	e3a01000 	mov	r1, #0
c000d3f0:	e59f209c 	ldr	r2, [pc, #156]	; c000d494 <init_memory_pool+0x15c>
c000d3f4:	ebfffe0b 	bl	c000cc28 <memset>
c000d3f8:	e51b3008 	ldr	r3, [fp, #-8]
c000d3fc:	e59f2088 	ldr	r2, [pc, #136]	; c000d48c <init_memory_pool+0x154>
c000d400:	e5832000 	str	r2, [r3]
c000d404:	e51b301c 	ldr	r3, [fp, #-28]
c000d408:	e2832ec7 	add	r2, r3, #3184	; 0xc70
c000d40c:	e51b3018 	ldr	r3, [fp, #-24]
c000d410:	e2433ec6 	sub	r3, r3, #3168	; 0xc60
c000d414:	e243300c 	sub	r3, r3, #12
c000d418:	e3c33007 	bic	r3, r3, #7
c000d41c:	e1a00002 	mov	r0, r2
c000d420:	e1a01003 	mov	r1, r3
c000d424:	ebffff87 	bl	c000d248 <process_area>
c000d428:	e50b0010 	str	r0, [fp, #-16]
c000d42c:	e51b3010 	ldr	r3, [fp, #-16]
c000d430:	e5933004 	ldr	r3, [r3, #4]
c000d434:	e3c33003 	bic	r3, r3, #3
c000d438:	e2833008 	add	r3, r3, #8
c000d43c:	e51b2010 	ldr	r2, [fp, #-16]
c000d440:	e0823003 	add	r3, r2, r3
c000d444:	e50b300c 	str	r3, [fp, #-12]
c000d448:	e51b300c 	ldr	r3, [fp, #-12]
c000d44c:	e2833008 	add	r3, r3, #8
c000d450:	e1a00003 	mov	r0, r3
c000d454:	e51b1008 	ldr	r1, [fp, #-8]
c000d458:	eb00020f 	bl	c000dc9c <free_ex>
c000d45c:	e51b3010 	ldr	r3, [fp, #-16]
c000d460:	e2832008 	add	r2, r3, #8
c000d464:	e51b3008 	ldr	r3, [fp, #-8]
c000d468:	e5832004 	str	r2, [r3, #4]
c000d46c:	e51b300c 	ldr	r3, [fp, #-12]
c000d470:	e5933004 	ldr	r3, [r3, #4]
c000d474:	e3c33003 	bic	r3, r3, #3
c000d478:	e1a00003 	mov	r0, r3
c000d47c:	e24bd004 	sub	sp, fp, #4
c000d480:	e8bd4800 	pop	{fp, lr}
c000d484:	e12fff1e 	bx	lr
c000d488:	00000cab 	andeq	r0, r0, fp, lsr #25
c000d48c:	2a59fa59 	bcs	c168bdf8 <_end+0x167c9e4>
c000d490:	c000f374 	andgt	pc, r0, r4, ror r3	; <UNPREDICTABLE>
c000d494:	00000c6c 	andeq	r0, r0, ip, ror #24

c000d498 <add_new_area>:
c000d498:	e92d4800 	push	{fp, lr}
c000d49c:	e28db004 	add	fp, sp, #4
c000d4a0:	e24dd040 	sub	sp, sp, #64	; 0x40
c000d4a4:	e50b0038 	str	r0, [fp, #-56]	; 0x38
c000d4a8:	e50b103c 	str	r1, [fp, #-60]	; 0x3c
c000d4ac:	e50b2040 	str	r2, [fp, #-64]	; 0x40
c000d4b0:	e51b3040 	ldr	r3, [fp, #-64]	; 0x40
c000d4b4:	e50b301c 	str	r3, [fp, #-28]
c000d4b8:	e51b0038 	ldr	r0, [fp, #-56]	; 0x38
c000d4bc:	e3a01000 	mov	r1, #0
c000d4c0:	e51b203c 	ldr	r2, [fp, #-60]	; 0x3c
c000d4c4:	ebfffdd7 	bl	c000cc28 <memset>
c000d4c8:	e51b301c 	ldr	r3, [fp, #-28]
c000d4cc:	e5933004 	ldr	r3, [r3, #4]
c000d4d0:	e50b3008 	str	r3, [fp, #-8]
c000d4d4:	e3a03000 	mov	r3, #0
c000d4d8:	e50b300c 	str	r3, [fp, #-12]
c000d4dc:	e51b0038 	ldr	r0, [fp, #-56]	; 0x38
c000d4e0:	e51b103c 	ldr	r1, [fp, #-60]	; 0x3c
c000d4e4:	ebffff57 	bl	c000d248 <process_area>
c000d4e8:	e50b0010 	str	r0, [fp, #-16]
c000d4ec:	e51b3010 	ldr	r3, [fp, #-16]
c000d4f0:	e5933004 	ldr	r3, [r3, #4]
c000d4f4:	e3c33003 	bic	r3, r3, #3
c000d4f8:	e2833008 	add	r3, r3, #8
c000d4fc:	e51b2010 	ldr	r2, [fp, #-16]
c000d500:	e0823003 	add	r3, r2, r3
c000d504:	e50b3014 	str	r3, [fp, #-20]
c000d508:	e51b3014 	ldr	r3, [fp, #-20]
c000d50c:	e5933004 	ldr	r3, [r3, #4]
c000d510:	e3c33003 	bic	r3, r3, #3
c000d514:	e2833008 	add	r3, r3, #8
c000d518:	e51b2014 	ldr	r2, [fp, #-20]
c000d51c:	e0823003 	add	r3, r2, r3
c000d520:	e50b3018 	str	r3, [fp, #-24]
c000d524:	ea000073 	b	c000d6f8 <add_new_area+0x260>
c000d528:	e51b3008 	ldr	r3, [fp, #-8]
c000d52c:	e2433008 	sub	r3, r3, #8
c000d530:	e50b3020 	str	r3, [fp, #-32]
c000d534:	e51b3020 	ldr	r3, [fp, #-32]
c000d538:	e5933004 	ldr	r3, [r3, #4]
c000d53c:	e3c33003 	bic	r3, r3, #3
c000d540:	e2833008 	add	r3, r3, #8
c000d544:	e51b2020 	ldr	r2, [fp, #-32]
c000d548:	e0823003 	add	r3, r2, r3
c000d54c:	e50b3024 	str	r3, [fp, #-36]	; 0x24
c000d550:	e51b3008 	ldr	r3, [fp, #-8]
c000d554:	e5933000 	ldr	r3, [r3]
c000d558:	e50b3028 	str	r3, [fp, #-40]	; 0x28
c000d55c:	e51b2020 	ldr	r2, [fp, #-32]
c000d560:	e51b3018 	ldr	r3, [fp, #-24]
c000d564:	e2833008 	add	r3, r3, #8
c000d568:	e1520003 	cmp	r2, r3
c000d56c:	1a000024 	bne	c000d604 <add_new_area+0x16c>
c000d570:	e51b301c 	ldr	r3, [fp, #-28]
c000d574:	e5932004 	ldr	r2, [r3, #4]
c000d578:	e51b3008 	ldr	r3, [fp, #-8]
c000d57c:	e1520003 	cmp	r2, r3
c000d580:	1a000007 	bne	c000d5a4 <add_new_area+0x10c>
c000d584:	e51b3008 	ldr	r3, [fp, #-8]
c000d588:	e5932004 	ldr	r2, [r3, #4]
c000d58c:	e51b301c 	ldr	r3, [fp, #-28]
c000d590:	e5832004 	str	r2, [r3, #4]
c000d594:	e51b3008 	ldr	r3, [fp, #-8]
c000d598:	e5933004 	ldr	r3, [r3, #4]
c000d59c:	e50b3008 	str	r3, [fp, #-8]
c000d5a0:	ea000006 	b	c000d5c0 <add_new_area+0x128>
c000d5a4:	e51b3008 	ldr	r3, [fp, #-8]
c000d5a8:	e5932004 	ldr	r2, [r3, #4]
c000d5ac:	e51b300c 	ldr	r3, [fp, #-12]
c000d5b0:	e5832004 	str	r2, [r3, #4]
c000d5b4:	e51b3008 	ldr	r3, [fp, #-8]
c000d5b8:	e5933004 	ldr	r3, [r3, #4]
c000d5bc:	e50b3008 	str	r3, [fp, #-8]
c000d5c0:	e51b3014 	ldr	r3, [fp, #-20]
c000d5c4:	e5933004 	ldr	r3, [r3, #4]
c000d5c8:	e3c32003 	bic	r2, r3, #3
c000d5cc:	e51b3020 	ldr	r3, [fp, #-32]
c000d5d0:	e5933004 	ldr	r3, [r3, #4]
c000d5d4:	e3c33003 	bic	r3, r3, #3
c000d5d8:	e0823003 	add	r3, r2, r3
c000d5dc:	e2833010 	add	r3, r3, #16
c000d5e0:	e3c32007 	bic	r2, r3, #7
c000d5e4:	e51b3014 	ldr	r3, [fp, #-20]
c000d5e8:	e5832004 	str	r2, [r3, #4]
c000d5ec:	e51b3024 	ldr	r3, [fp, #-36]	; 0x24
c000d5f0:	e51b2014 	ldr	r2, [fp, #-20]
c000d5f4:	e5832000 	str	r2, [r3]
c000d5f8:	e51b3028 	ldr	r3, [fp, #-40]	; 0x28
c000d5fc:	e50b3018 	str	r3, [fp, #-24]
c000d600:	ea00003c 	b	c000d6f8 <add_new_area+0x260>
c000d604:	e51b3028 	ldr	r3, [fp, #-40]	; 0x28
c000d608:	e2833008 	add	r3, r3, #8
c000d60c:	e1a02003 	mov	r2, r3
c000d610:	e51b3010 	ldr	r3, [fp, #-16]
c000d614:	e1520003 	cmp	r2, r3
c000d618:	1a000031 	bne	c000d6e4 <add_new_area+0x24c>
c000d61c:	e51b301c 	ldr	r3, [fp, #-28]
c000d620:	e5932004 	ldr	r2, [r3, #4]
c000d624:	e51b3008 	ldr	r3, [fp, #-8]
c000d628:	e1520003 	cmp	r2, r3
c000d62c:	1a000007 	bne	c000d650 <add_new_area+0x1b8>
c000d630:	e51b3008 	ldr	r3, [fp, #-8]
c000d634:	e5932004 	ldr	r2, [r3, #4]
c000d638:	e51b301c 	ldr	r3, [fp, #-28]
c000d63c:	e5832004 	str	r2, [r3, #4]
c000d640:	e51b3008 	ldr	r3, [fp, #-8]
c000d644:	e5933004 	ldr	r3, [r3, #4]
c000d648:	e50b3008 	str	r3, [fp, #-8]
c000d64c:	ea000006 	b	c000d66c <add_new_area+0x1d4>
c000d650:	e51b3008 	ldr	r3, [fp, #-8]
c000d654:	e5932004 	ldr	r2, [r3, #4]
c000d658:	e51b300c 	ldr	r3, [fp, #-12]
c000d65c:	e5832004 	str	r2, [r3, #4]
c000d660:	e51b3008 	ldr	r3, [fp, #-8]
c000d664:	e5933004 	ldr	r3, [r3, #4]
c000d668:	e50b3008 	str	r3, [fp, #-8]
c000d66c:	e51b3014 	ldr	r3, [fp, #-20]
c000d670:	e5933004 	ldr	r3, [r3, #4]
c000d674:	e3c32003 	bic	r2, r3, #3
c000d678:	e51b3010 	ldr	r3, [fp, #-16]
c000d67c:	e5933004 	ldr	r3, [r3, #4]
c000d680:	e3c33003 	bic	r3, r3, #3
c000d684:	e0823003 	add	r3, r2, r3
c000d688:	e2833010 	add	r3, r3, #16
c000d68c:	e3c32007 	bic	r2, r3, #7
c000d690:	e51b3028 	ldr	r3, [fp, #-40]	; 0x28
c000d694:	e5933004 	ldr	r3, [r3, #4]
c000d698:	e2033002 	and	r3, r3, #2
c000d69c:	e1822003 	orr	r2, r2, r3
c000d6a0:	e51b3028 	ldr	r3, [fp, #-40]	; 0x28
c000d6a4:	e5832004 	str	r2, [r3, #4]
c000d6a8:	e51b3028 	ldr	r3, [fp, #-40]	; 0x28
c000d6ac:	e5933004 	ldr	r3, [r3, #4]
c000d6b0:	e3c33003 	bic	r3, r3, #3
c000d6b4:	e2833008 	add	r3, r3, #8
c000d6b8:	e51b2028 	ldr	r2, [fp, #-40]	; 0x28
c000d6bc:	e0823003 	add	r3, r2, r3
c000d6c0:	e50b302c 	str	r3, [fp, #-44]	; 0x2c
c000d6c4:	e51b302c 	ldr	r3, [fp, #-44]	; 0x2c
c000d6c8:	e51b2028 	ldr	r2, [fp, #-40]	; 0x28
c000d6cc:	e5832000 	str	r2, [r3]
c000d6d0:	e51b3028 	ldr	r3, [fp, #-40]	; 0x28
c000d6d4:	e50b3014 	str	r3, [fp, #-20]
c000d6d8:	e51b3020 	ldr	r3, [fp, #-32]
c000d6dc:	e50b3010 	str	r3, [fp, #-16]
c000d6e0:	ea000004 	b	c000d6f8 <add_new_area+0x260>
c000d6e4:	e51b3008 	ldr	r3, [fp, #-8]
c000d6e8:	e50b300c 	str	r3, [fp, #-12]
c000d6ec:	e51b3008 	ldr	r3, [fp, #-8]
c000d6f0:	e5933004 	ldr	r3, [r3, #4]
c000d6f4:	e50b3008 	str	r3, [fp, #-8]
c000d6f8:	e51b3008 	ldr	r3, [fp, #-8]
c000d6fc:	e3530000 	cmp	r3, #0
c000d700:	1affff88 	bne	c000d528 <add_new_area+0x90>
c000d704:	e51b3010 	ldr	r3, [fp, #-16]
c000d708:	e2833008 	add	r3, r3, #8
c000d70c:	e50b3030 	str	r3, [fp, #-48]	; 0x30
c000d710:	e51b301c 	ldr	r3, [fp, #-28]
c000d714:	e5932004 	ldr	r2, [r3, #4]
c000d718:	e51b3030 	ldr	r3, [fp, #-48]	; 0x30
c000d71c:	e5832004 	str	r2, [r3, #4]
c000d720:	e51b3030 	ldr	r3, [fp, #-48]	; 0x30
c000d724:	e51b2018 	ldr	r2, [fp, #-24]
c000d728:	e5832000 	str	r2, [r3]
c000d72c:	e51b301c 	ldr	r3, [fp, #-28]
c000d730:	e51b2030 	ldr	r2, [fp, #-48]	; 0x30
c000d734:	e5832004 	str	r2, [r3, #4]
c000d738:	e51b3014 	ldr	r3, [fp, #-20]
c000d73c:	e2833008 	add	r3, r3, #8
c000d740:	e1a00003 	mov	r0, r3
c000d744:	e51b1040 	ldr	r1, [fp, #-64]	; 0x40
c000d748:	eb000153 	bl	c000dc9c <free_ex>
c000d74c:	e51b3014 	ldr	r3, [fp, #-20]
c000d750:	e5933004 	ldr	r3, [r3, #4]
c000d754:	e3c33003 	bic	r3, r3, #3
c000d758:	e1a00003 	mov	r0, r3
c000d75c:	e24bd004 	sub	sp, fp, #4
c000d760:	e8bd4800 	pop	{fp, lr}
c000d764:	e12fff1e 	bx	lr

c000d768 <get_used_size>:
c000d768:	e52db004 	push	{fp}		; (str fp, [sp, #-4]!)
c000d76c:	e28db000 	add	fp, sp, #0
c000d770:	e24dd00c 	sub	sp, sp, #12
c000d774:	e50b0008 	str	r0, [fp, #-8]
c000d778:	e3a03000 	mov	r3, #0
c000d77c:	e1a00003 	mov	r0, r3
c000d780:	e24bd000 	sub	sp, fp, #0
c000d784:	e49db004 	pop	{fp}		; (ldr fp, [sp], #4)
c000d788:	e12fff1e 	bx	lr

c000d78c <get_max_size>:
c000d78c:	e52db004 	push	{fp}		; (str fp, [sp, #-4]!)
c000d790:	e28db000 	add	fp, sp, #0
c000d794:	e24dd00c 	sub	sp, sp, #12
c000d798:	e50b0008 	str	r0, [fp, #-8]
c000d79c:	e3a03000 	mov	r3, #0
c000d7a0:	e1a00003 	mov	r0, r3
c000d7a4:	e24bd000 	sub	sp, fp, #0
c000d7a8:	e49db004 	pop	{fp}		; (ldr fp, [sp], #4)
c000d7ac:	e12fff1e 	bx	lr

c000d7b0 <destroy_memory_pool>:
c000d7b0:	e52db004 	push	{fp}		; (str fp, [sp, #-4]!)
c000d7b4:	e28db000 	add	fp, sp, #0
c000d7b8:	e24dd014 	sub	sp, sp, #20
c000d7bc:	e50b0010 	str	r0, [fp, #-16]
c000d7c0:	e51b3010 	ldr	r3, [fp, #-16]
c000d7c4:	e50b3008 	str	r3, [fp, #-8]
c000d7c8:	e51b3008 	ldr	r3, [fp, #-8]
c000d7cc:	e3a02000 	mov	r2, #0
c000d7d0:	e5832000 	str	r2, [r3]
c000d7d4:	e24bd000 	sub	sp, fp, #0
c000d7d8:	e49db004 	pop	{fp}		; (ldr fp, [sp], #4)
c000d7dc:	e12fff1e 	bx	lr

c000d7e0 <tlsf_malloc>:
c000d7e0:	e92d4800 	push	{fp, lr}
c000d7e4:	e28db004 	add	fp, sp, #4
c000d7e8:	e24dd010 	sub	sp, sp, #16
c000d7ec:	e50b0010 	str	r0, [fp, #-16]
c000d7f0:	e59f3024 	ldr	r3, [pc, #36]	; c000d81c <tlsf_malloc+0x3c>
c000d7f4:	e5933000 	ldr	r3, [r3]
c000d7f8:	e51b0010 	ldr	r0, [fp, #-16]
c000d7fc:	e1a01003 	mov	r1, r3
c000d800:	eb000037 	bl	c000d8e4 <malloc_ex>
c000d804:	e50b0008 	str	r0, [fp, #-8]
c000d808:	e51b3008 	ldr	r3, [fp, #-8]
c000d80c:	e1a00003 	mov	r0, r3
c000d810:	e24bd004 	sub	sp, fp, #4
c000d814:	e8bd4800 	pop	{fp, lr}
c000d818:	e12fff1e 	bx	lr
c000d81c:	c000f374 	andgt	pc, r0, r4, ror r3	; <UNPREDICTABLE>

c000d820 <tlsf_free>:
c000d820:	e92d4800 	push	{fp, lr}
c000d824:	e28db004 	add	fp, sp, #4
c000d828:	e24dd008 	sub	sp, sp, #8
c000d82c:	e50b0008 	str	r0, [fp, #-8]
c000d830:	e59f3018 	ldr	r3, [pc, #24]	; c000d850 <tlsf_free+0x30>
c000d834:	e5933000 	ldr	r3, [r3]
c000d838:	e51b0008 	ldr	r0, [fp, #-8]
c000d83c:	e1a01003 	mov	r1, r3
c000d840:	eb000115 	bl	c000dc9c <free_ex>
c000d844:	e24bd004 	sub	sp, fp, #4
c000d848:	e8bd4800 	pop	{fp, lr}
c000d84c:	e12fff1e 	bx	lr
c000d850:	c000f374 	andgt	pc, r0, r4, ror r3	; <UNPREDICTABLE>

c000d854 <tlsf_realloc>:
c000d854:	e92d4800 	push	{fp, lr}
c000d858:	e28db004 	add	fp, sp, #4
c000d85c:	e24dd010 	sub	sp, sp, #16
c000d860:	e50b0010 	str	r0, [fp, #-16]
c000d864:	e50b1014 	str	r1, [fp, #-20]
c000d868:	e59f3028 	ldr	r3, [pc, #40]	; c000d898 <tlsf_realloc+0x44>
c000d86c:	e5933000 	ldr	r3, [r3]
c000d870:	e51b0010 	ldr	r0, [fp, #-16]
c000d874:	e51b1014 	ldr	r1, [fp, #-20]
c000d878:	e1a02003 	mov	r2, r3
c000d87c:	eb000271 	bl	c000e248 <realloc_ex>
c000d880:	e50b0008 	str	r0, [fp, #-8]
c000d884:	e51b3008 	ldr	r3, [fp, #-8]
c000d888:	e1a00003 	mov	r0, r3
c000d88c:	e24bd004 	sub	sp, fp, #4
c000d890:	e8bd4800 	pop	{fp, lr}
c000d894:	e12fff1e 	bx	lr
c000d898:	c000f374 	andgt	pc, r0, r4, ror r3	; <UNPREDICTABLE>

c000d89c <tlsf_calloc>:
c000d89c:	e92d4800 	push	{fp, lr}
c000d8a0:	e28db004 	add	fp, sp, #4
c000d8a4:	e24dd010 	sub	sp, sp, #16
c000d8a8:	e50b0010 	str	r0, [fp, #-16]
c000d8ac:	e50b1014 	str	r1, [fp, #-20]
c000d8b0:	e59f3028 	ldr	r3, [pc, #40]	; c000d8e0 <tlsf_calloc+0x44>
c000d8b4:	e5933000 	ldr	r3, [r3]
c000d8b8:	e51b0010 	ldr	r0, [fp, #-16]
c000d8bc:	e51b1014 	ldr	r1, [fp, #-20]
c000d8c0:	e1a02003 	mov	r2, r3
c000d8c4:	eb000498 	bl	c000eb2c <calloc_ex>
c000d8c8:	e50b0008 	str	r0, [fp, #-8]
c000d8cc:	e51b3008 	ldr	r3, [fp, #-8]
c000d8d0:	e1a00003 	mov	r0, r3
c000d8d4:	e24bd004 	sub	sp, fp, #4
c000d8d8:	e8bd4800 	pop	{fp, lr}
c000d8dc:	e12fff1e 	bx	lr
c000d8e0:	c000f374 	andgt	pc, r0, r4, ror r3	; <UNPREDICTABLE>

c000d8e4 <malloc_ex>:
c000d8e4:	e92d4800 	push	{fp, lr}
c000d8e8:	e28db004 	add	fp, sp, #4
c000d8ec:	e24dd028 	sub	sp, sp, #40	; 0x28
c000d8f0:	e50b0028 	str	r0, [fp, #-40]	; 0x28
c000d8f4:	e50b102c 	str	r1, [fp, #-44]	; 0x2c
c000d8f8:	e51b302c 	ldr	r3, [fp, #-44]	; 0x2c
c000d8fc:	e50b3008 	str	r3, [fp, #-8]
c000d900:	e51b3028 	ldr	r3, [fp, #-40]	; 0x28
c000d904:	e3530007 	cmp	r3, #7
c000d908:	9a000003 	bls	c000d91c <malloc_ex+0x38>
c000d90c:	e51b3028 	ldr	r3, [fp, #-40]	; 0x28
c000d910:	e2833007 	add	r3, r3, #7
c000d914:	e3c33007 	bic	r3, r3, #7
c000d918:	ea000000 	b	c000d920 <malloc_ex+0x3c>
c000d91c:	e3a03008 	mov	r3, #8
c000d920:	e50b3028 	str	r3, [fp, #-40]	; 0x28
c000d924:	e24b1028 	sub	r1, fp, #40	; 0x28
c000d928:	e24b201c 	sub	r2, fp, #28
c000d92c:	e24b3020 	sub	r3, fp, #32
c000d930:	e1a00001 	mov	r0, r1
c000d934:	e1a01002 	mov	r1, r2
c000d938:	e1a02003 	mov	r2, r3
c000d93c:	ebfffd73 	bl	c000cf10 <MAPPING_SEARCH>
c000d940:	e24b201c 	sub	r2, fp, #28
c000d944:	e24b3020 	sub	r3, fp, #32
c000d948:	e51b0008 	ldr	r0, [fp, #-8]
c000d94c:	e1a01002 	mov	r1, r2
c000d950:	e1a02003 	mov	r2, r3
c000d954:	ebfffdda 	bl	c000d0c4 <FIND_SUITABLE_BLOCK>
c000d958:	e50b000c 	str	r0, [fp, #-12]
c000d95c:	e51b300c 	ldr	r3, [fp, #-12]
c000d960:	e3530000 	cmp	r3, #0
c000d964:	1a000001 	bne	c000d970 <malloc_ex+0x8c>
c000d968:	e3a03000 	mov	r3, #0
c000d96c:	ea0000c6 	b	c000dc8c <malloc_ex+0x3a8>
c000d970:	e51b101c 	ldr	r1, [fp, #-28]
c000d974:	e51b3020 	ldr	r3, [fp, #-32]
c000d978:	e51b200c 	ldr	r2, [fp, #-12]
c000d97c:	e592200c 	ldr	r2, [r2, #12]
c000d980:	e51b0008 	ldr	r0, [fp, #-8]
c000d984:	e1a01281 	lsl	r1, r1, #5
c000d988:	e0813003 	add	r3, r1, r3
c000d98c:	e283101a 	add	r1, r3, #26
c000d990:	e3a03004 	mov	r3, #4
c000d994:	e1a01101 	lsl	r1, r1, #2
c000d998:	e0801001 	add	r1, r0, r1
c000d99c:	e0813003 	add	r3, r1, r3
c000d9a0:	e5832000 	str	r2, [r3]
c000d9a4:	e51b201c 	ldr	r2, [fp, #-28]
c000d9a8:	e51b3020 	ldr	r3, [fp, #-32]
c000d9ac:	e51b1008 	ldr	r1, [fp, #-8]
c000d9b0:	e1a02282 	lsl	r2, r2, #5
c000d9b4:	e0823003 	add	r3, r2, r3
c000d9b8:	e283201a 	add	r2, r3, #26
c000d9bc:	e3a03004 	mov	r3, #4
c000d9c0:	e1a02102 	lsl	r2, r2, #2
c000d9c4:	e0812002 	add	r2, r1, r2
c000d9c8:	e0823003 	add	r3, r2, r3
c000d9cc:	e5933000 	ldr	r3, [r3]
c000d9d0:	e3530000 	cmp	r3, #0
c000d9d4:	0a00000d 	beq	c000da10 <malloc_ex+0x12c>
c000d9d8:	e51b201c 	ldr	r2, [fp, #-28]
c000d9dc:	e51b3020 	ldr	r3, [fp, #-32]
c000d9e0:	e51b1008 	ldr	r1, [fp, #-8]
c000d9e4:	e1a02282 	lsl	r2, r2, #5
c000d9e8:	e0823003 	add	r3, r2, r3
c000d9ec:	e283201a 	add	r2, r3, #26
c000d9f0:	e3a03004 	mov	r3, #4
c000d9f4:	e1a02102 	lsl	r2, r2, #2
c000d9f8:	e0812002 	add	r2, r1, r2
c000d9fc:	e0823003 	add	r3, r2, r3
c000da00:	e5933000 	ldr	r3, [r3]
c000da04:	e3a02000 	mov	r2, #0
c000da08:	e5832008 	str	r2, [r3, #8]
c000da0c:	ea000019 	b	c000da78 <malloc_ex+0x194>
c000da10:	e51b2020 	ldr	r2, [fp, #-32]
c000da14:	e51b301c 	ldr	r3, [fp, #-28]
c000da18:	e2833002 	add	r3, r3, #2
c000da1c:	e1a03103 	lsl	r3, r3, #2
c000da20:	e51b1008 	ldr	r1, [fp, #-8]
c000da24:	e0813003 	add	r3, r1, r3
c000da28:	e2833004 	add	r3, r3, #4
c000da2c:	e1a00002 	mov	r0, r2
c000da30:	e1a01003 	mov	r1, r3
c000da34:	ebfffd1b 	bl	c000cea8 <clear_bit>
c000da38:	e51b301c 	ldr	r3, [fp, #-28]
c000da3c:	e51b1008 	ldr	r1, [fp, #-8]
c000da40:	e2832002 	add	r2, r3, #2
c000da44:	e3a03004 	mov	r3, #4
c000da48:	e1a02102 	lsl	r2, r2, #2
c000da4c:	e0812002 	add	r2, r1, r2
c000da50:	e0823003 	add	r3, r2, r3
c000da54:	e5933000 	ldr	r3, [r3]
c000da58:	e3530000 	cmp	r3, #0
c000da5c:	1a000005 	bne	c000da78 <malloc_ex+0x194>
c000da60:	e51b201c 	ldr	r2, [fp, #-28]
c000da64:	e51b3008 	ldr	r3, [fp, #-8]
c000da68:	e2833008 	add	r3, r3, #8
c000da6c:	e1a00002 	mov	r0, r2
c000da70:	e1a01003 	mov	r1, r3
c000da74:	ebfffd0b 	bl	c000cea8 <clear_bit>
c000da78:	e51b300c 	ldr	r3, [fp, #-12]
c000da7c:	e3a02000 	mov	r2, #0
c000da80:	e5832008 	str	r2, [r3, #8]
c000da84:	e51b300c 	ldr	r3, [fp, #-12]
c000da88:	e3a02000 	mov	r2, #0
c000da8c:	e583200c 	str	r2, [r3, #12]
c000da90:	e51b300c 	ldr	r3, [fp, #-12]
c000da94:	e5933004 	ldr	r3, [r3, #4]
c000da98:	e3c33003 	bic	r3, r3, #3
c000da9c:	e2833008 	add	r3, r3, #8
c000daa0:	e51b200c 	ldr	r2, [fp, #-12]
c000daa4:	e0823003 	add	r3, r2, r3
c000daa8:	e50b3010 	str	r3, [fp, #-16]
c000daac:	e51b300c 	ldr	r3, [fp, #-12]
c000dab0:	e5933004 	ldr	r3, [r3, #4]
c000dab4:	e3c32003 	bic	r2, r3, #3
c000dab8:	e51b3028 	ldr	r3, [fp, #-40]	; 0x28
c000dabc:	e0633002 	rsb	r3, r3, r2
c000dac0:	e50b3014 	str	r3, [fp, #-20]
c000dac4:	e51b3014 	ldr	r3, [fp, #-20]
c000dac8:	e353000f 	cmp	r3, #15
c000dacc:	9a000062 	bls	c000dc5c <malloc_ex+0x378>
c000dad0:	e51b3014 	ldr	r3, [fp, #-20]
c000dad4:	e2433008 	sub	r3, r3, #8
c000dad8:	e50b3014 	str	r3, [fp, #-20]
c000dadc:	e51b3028 	ldr	r3, [fp, #-40]	; 0x28
c000dae0:	e2833008 	add	r3, r3, #8
c000dae4:	e51b200c 	ldr	r2, [fp, #-12]
c000dae8:	e0823003 	add	r3, r2, r3
c000daec:	e50b3018 	str	r3, [fp, #-24]
c000daf0:	e51b3014 	ldr	r3, [fp, #-20]
c000daf4:	e3832001 	orr	r2, r3, #1
c000daf8:	e51b3018 	ldr	r3, [fp, #-24]
c000dafc:	e5832004 	str	r2, [r3, #4]
c000db00:	e51b3010 	ldr	r3, [fp, #-16]
c000db04:	e51b2018 	ldr	r2, [fp, #-24]
c000db08:	e5832000 	str	r2, [r3]
c000db0c:	e24b201c 	sub	r2, fp, #28
c000db10:	e24b3020 	sub	r3, fp, #32
c000db14:	e51b0014 	ldr	r0, [fp, #-20]
c000db18:	e1a01002 	mov	r1, r2
c000db1c:	e1a02003 	mov	r2, r3
c000db20:	ebfffd3e 	bl	c000d020 <MAPPING_INSERT>
c000db24:	e51b3018 	ldr	r3, [fp, #-24]
c000db28:	e3a02000 	mov	r2, #0
c000db2c:	e5832008 	str	r2, [r3, #8]
c000db30:	e51b201c 	ldr	r2, [fp, #-28]
c000db34:	e51b3020 	ldr	r3, [fp, #-32]
c000db38:	e51b1008 	ldr	r1, [fp, #-8]
c000db3c:	e1a02282 	lsl	r2, r2, #5
c000db40:	e0823003 	add	r3, r2, r3
c000db44:	e283201a 	add	r2, r3, #26
c000db48:	e3a03004 	mov	r3, #4
c000db4c:	e1a02102 	lsl	r2, r2, #2
c000db50:	e0812002 	add	r2, r1, r2
c000db54:	e0823003 	add	r3, r2, r3
c000db58:	e5932000 	ldr	r2, [r3]
c000db5c:	e51b3018 	ldr	r3, [fp, #-24]
c000db60:	e583200c 	str	r2, [r3, #12]
c000db64:	e51b201c 	ldr	r2, [fp, #-28]
c000db68:	e51b3020 	ldr	r3, [fp, #-32]
c000db6c:	e51b1008 	ldr	r1, [fp, #-8]
c000db70:	e1a02282 	lsl	r2, r2, #5
c000db74:	e0823003 	add	r3, r2, r3
c000db78:	e283201a 	add	r2, r3, #26
c000db7c:	e3a03004 	mov	r3, #4
c000db80:	e1a02102 	lsl	r2, r2, #2
c000db84:	e0812002 	add	r2, r1, r2
c000db88:	e0823003 	add	r3, r2, r3
c000db8c:	e5933000 	ldr	r3, [r3]
c000db90:	e3530000 	cmp	r3, #0
c000db94:	0a00000c 	beq	c000dbcc <malloc_ex+0x2e8>
c000db98:	e51b201c 	ldr	r2, [fp, #-28]
c000db9c:	e51b3020 	ldr	r3, [fp, #-32]
c000dba0:	e51b1008 	ldr	r1, [fp, #-8]
c000dba4:	e1a02282 	lsl	r2, r2, #5
c000dba8:	e0823003 	add	r3, r2, r3
c000dbac:	e283201a 	add	r2, r3, #26
c000dbb0:	e3a03004 	mov	r3, #4
c000dbb4:	e1a02102 	lsl	r2, r2, #2
c000dbb8:	e0812002 	add	r2, r1, r2
c000dbbc:	e0823003 	add	r3, r2, r3
c000dbc0:	e5933000 	ldr	r3, [r3]
c000dbc4:	e51b2018 	ldr	r2, [fp, #-24]
c000dbc8:	e5832008 	str	r2, [r3, #8]
c000dbcc:	e51b201c 	ldr	r2, [fp, #-28]
c000dbd0:	e51b3020 	ldr	r3, [fp, #-32]
c000dbd4:	e51b1008 	ldr	r1, [fp, #-8]
c000dbd8:	e1a02282 	lsl	r2, r2, #5
c000dbdc:	e0823003 	add	r3, r2, r3
c000dbe0:	e283201a 	add	r2, r3, #26
c000dbe4:	e3a03004 	mov	r3, #4
c000dbe8:	e1a02102 	lsl	r2, r2, #2
c000dbec:	e0812002 	add	r2, r1, r2
c000dbf0:	e0823003 	add	r3, r2, r3
c000dbf4:	e51b2018 	ldr	r2, [fp, #-24]
c000dbf8:	e5832000 	str	r2, [r3]
c000dbfc:	e51b2020 	ldr	r2, [fp, #-32]
c000dc00:	e51b301c 	ldr	r3, [fp, #-28]
c000dc04:	e2833002 	add	r3, r3, #2
c000dc08:	e1a03103 	lsl	r3, r3, #2
c000dc0c:	e51b1008 	ldr	r1, [fp, #-8]
c000dc10:	e0813003 	add	r3, r1, r3
c000dc14:	e2833004 	add	r3, r3, #4
c000dc18:	e1a00002 	mov	r0, r2
c000dc1c:	e1a01003 	mov	r1, r3
c000dc20:	ebfffc87 	bl	c000ce44 <set_bit>
c000dc24:	e51b201c 	ldr	r2, [fp, #-28]
c000dc28:	e51b3008 	ldr	r3, [fp, #-8]
c000dc2c:	e2833008 	add	r3, r3, #8
c000dc30:	e1a00002 	mov	r0, r2
c000dc34:	e1a01003 	mov	r1, r3
c000dc38:	ebfffc81 	bl	c000ce44 <set_bit>
c000dc3c:	e51b300c 	ldr	r3, [fp, #-12]
c000dc40:	e5933004 	ldr	r3, [r3, #4]
c000dc44:	e2032002 	and	r2, r3, #2
c000dc48:	e51b3028 	ldr	r3, [fp, #-40]	; 0x28
c000dc4c:	e1822003 	orr	r2, r2, r3
c000dc50:	e51b300c 	ldr	r3, [fp, #-12]
c000dc54:	e5832004 	str	r2, [r3, #4]
c000dc58:	ea000009 	b	c000dc84 <malloc_ex+0x3a0>
c000dc5c:	e51b3010 	ldr	r3, [fp, #-16]
c000dc60:	e5933004 	ldr	r3, [r3, #4]
c000dc64:	e3c32002 	bic	r2, r3, #2
c000dc68:	e51b3010 	ldr	r3, [fp, #-16]
c000dc6c:	e5832004 	str	r2, [r3, #4]
c000dc70:	e51b300c 	ldr	r3, [fp, #-12]
c000dc74:	e5933004 	ldr	r3, [r3, #4]
c000dc78:	e3c32001 	bic	r2, r3, #1
c000dc7c:	e51b300c 	ldr	r3, [fp, #-12]
c000dc80:	e5832004 	str	r2, [r3, #4]
c000dc84:	e51b300c 	ldr	r3, [fp, #-12]
c000dc88:	e2833008 	add	r3, r3, #8
c000dc8c:	e1a00003 	mov	r0, r3
c000dc90:	e24bd004 	sub	sp, fp, #4
c000dc94:	e8bd4800 	pop	{fp, lr}
c000dc98:	e12fff1e 	bx	lr

c000dc9c <free_ex>:
c000dc9c:	e92d4800 	push	{fp, lr}
c000dca0:	e28db004 	add	fp, sp, #4
c000dca4:	e24dd020 	sub	sp, sp, #32
c000dca8:	e50b0020 	str	r0, [fp, #-32]
c000dcac:	e50b1024 	str	r1, [fp, #-36]	; 0x24
c000dcb0:	e51b3024 	ldr	r3, [fp, #-36]	; 0x24
c000dcb4:	e50b300c 	str	r3, [fp, #-12]
c000dcb8:	e3a03000 	mov	r3, #0
c000dcbc:	e50b3014 	str	r3, [fp, #-20]
c000dcc0:	e3a03000 	mov	r3, #0
c000dcc4:	e50b3018 	str	r3, [fp, #-24]
c000dcc8:	e51b3020 	ldr	r3, [fp, #-32]
c000dccc:	e3530000 	cmp	r3, #0
c000dcd0:	0a000159 	beq	c000e23c <free_ex+0x5a0>
c000dcd4:	e51b3020 	ldr	r3, [fp, #-32]
c000dcd8:	e2433008 	sub	r3, r3, #8
c000dcdc:	e50b3008 	str	r3, [fp, #-8]
c000dce0:	e51b3008 	ldr	r3, [fp, #-8]
c000dce4:	e5933004 	ldr	r3, [r3, #4]
c000dce8:	e3832001 	orr	r2, r3, #1
c000dcec:	e51b3008 	ldr	r3, [fp, #-8]
c000dcf0:	e5832004 	str	r2, [r3, #4]
c000dcf4:	e51b3008 	ldr	r3, [fp, #-8]
c000dcf8:	e3a02000 	mov	r2, #0
c000dcfc:	e5832008 	str	r2, [r3, #8]
c000dd00:	e51b3008 	ldr	r3, [fp, #-8]
c000dd04:	e3a02000 	mov	r2, #0
c000dd08:	e583200c 	str	r2, [r3, #12]
c000dd0c:	e51b3008 	ldr	r3, [fp, #-8]
c000dd10:	e5933004 	ldr	r3, [r3, #4]
c000dd14:	e3c33003 	bic	r3, r3, #3
c000dd18:	e2833008 	add	r3, r3, #8
c000dd1c:	e51b2008 	ldr	r2, [fp, #-8]
c000dd20:	e0823003 	add	r3, r2, r3
c000dd24:	e50b3010 	str	r3, [fp, #-16]
c000dd28:	e51b3010 	ldr	r3, [fp, #-16]
c000dd2c:	e5933004 	ldr	r3, [r3, #4]
c000dd30:	e2033001 	and	r3, r3, #1
c000dd34:	e3530000 	cmp	r3, #0
c000dd38:	0a00006b 	beq	c000deec <free_ex+0x250>
c000dd3c:	e51b3010 	ldr	r3, [fp, #-16]
c000dd40:	e5933004 	ldr	r3, [r3, #4]
c000dd44:	e3c31003 	bic	r1, r3, #3
c000dd48:	e24b2014 	sub	r2, fp, #20
c000dd4c:	e24b3018 	sub	r3, fp, #24
c000dd50:	e1a00001 	mov	r0, r1
c000dd54:	e1a01002 	mov	r1, r2
c000dd58:	e1a02003 	mov	r2, r3
c000dd5c:	ebfffcaf 	bl	c000d020 <MAPPING_INSERT>
c000dd60:	e51b3010 	ldr	r3, [fp, #-16]
c000dd64:	e593300c 	ldr	r3, [r3, #12]
c000dd68:	e3530000 	cmp	r3, #0
c000dd6c:	0a000004 	beq	c000dd84 <free_ex+0xe8>
c000dd70:	e51b3010 	ldr	r3, [fp, #-16]
c000dd74:	e593300c 	ldr	r3, [r3, #12]
c000dd78:	e51b2010 	ldr	r2, [fp, #-16]
c000dd7c:	e5922008 	ldr	r2, [r2, #8]
c000dd80:	e5832008 	str	r2, [r3, #8]
c000dd84:	e51b3010 	ldr	r3, [fp, #-16]
c000dd88:	e5933008 	ldr	r3, [r3, #8]
c000dd8c:	e3530000 	cmp	r3, #0
c000dd90:	0a000004 	beq	c000dda8 <free_ex+0x10c>
c000dd94:	e51b3010 	ldr	r3, [fp, #-16]
c000dd98:	e5933008 	ldr	r3, [r3, #8]
c000dd9c:	e51b2010 	ldr	r2, [fp, #-16]
c000dda0:	e592200c 	ldr	r2, [r2, #12]
c000dda4:	e583200c 	str	r2, [r3, #12]
c000dda8:	e51b2014 	ldr	r2, [fp, #-20]
c000ddac:	e51b3018 	ldr	r3, [fp, #-24]
c000ddb0:	e51b100c 	ldr	r1, [fp, #-12]
c000ddb4:	e1a02282 	lsl	r2, r2, #5
c000ddb8:	e0823003 	add	r3, r2, r3
c000ddbc:	e283201a 	add	r2, r3, #26
c000ddc0:	e3a03004 	mov	r3, #4
c000ddc4:	e1a02102 	lsl	r2, r2, #2
c000ddc8:	e0812002 	add	r2, r1, r2
c000ddcc:	e0823003 	add	r3, r2, r3
c000ddd0:	e5932000 	ldr	r2, [r3]
c000ddd4:	e51b3010 	ldr	r3, [fp, #-16]
c000ddd8:	e1520003 	cmp	r2, r3
c000dddc:	1a000033 	bne	c000deb0 <free_ex+0x214>
c000dde0:	e51b1014 	ldr	r1, [fp, #-20]
c000dde4:	e51b3018 	ldr	r3, [fp, #-24]
c000dde8:	e51b2010 	ldr	r2, [fp, #-16]
c000ddec:	e592200c 	ldr	r2, [r2, #12]
c000ddf0:	e51b000c 	ldr	r0, [fp, #-12]
c000ddf4:	e1a01281 	lsl	r1, r1, #5
c000ddf8:	e0813003 	add	r3, r1, r3
c000ddfc:	e283101a 	add	r1, r3, #26
c000de00:	e3a03004 	mov	r3, #4
c000de04:	e1a01101 	lsl	r1, r1, #2
c000de08:	e0801001 	add	r1, r0, r1
c000de0c:	e0813003 	add	r3, r1, r3
c000de10:	e5832000 	str	r2, [r3]
c000de14:	e51b2014 	ldr	r2, [fp, #-20]
c000de18:	e51b3018 	ldr	r3, [fp, #-24]
c000de1c:	e51b100c 	ldr	r1, [fp, #-12]
c000de20:	e1a02282 	lsl	r2, r2, #5
c000de24:	e0823003 	add	r3, r2, r3
c000de28:	e283201a 	add	r2, r3, #26
c000de2c:	e3a03004 	mov	r3, #4
c000de30:	e1a02102 	lsl	r2, r2, #2
c000de34:	e0812002 	add	r2, r1, r2
c000de38:	e0823003 	add	r3, r2, r3
c000de3c:	e5933000 	ldr	r3, [r3]
c000de40:	e3530000 	cmp	r3, #0
c000de44:	1a000019 	bne	c000deb0 <free_ex+0x214>
c000de48:	e51b2018 	ldr	r2, [fp, #-24]
c000de4c:	e51b3014 	ldr	r3, [fp, #-20]
c000de50:	e2833002 	add	r3, r3, #2
c000de54:	e1a03103 	lsl	r3, r3, #2
c000de58:	e51b100c 	ldr	r1, [fp, #-12]
c000de5c:	e0813003 	add	r3, r1, r3
c000de60:	e2833004 	add	r3, r3, #4
c000de64:	e1a00002 	mov	r0, r2
c000de68:	e1a01003 	mov	r1, r3
c000de6c:	ebfffc0d 	bl	c000cea8 <clear_bit>
c000de70:	e51b3014 	ldr	r3, [fp, #-20]
c000de74:	e51b100c 	ldr	r1, [fp, #-12]
c000de78:	e2832002 	add	r2, r3, #2
c000de7c:	e3a03004 	mov	r3, #4
c000de80:	e1a02102 	lsl	r2, r2, #2
c000de84:	e0812002 	add	r2, r1, r2
c000de88:	e0823003 	add	r3, r2, r3
c000de8c:	e5933000 	ldr	r3, [r3]
c000de90:	e3530000 	cmp	r3, #0
c000de94:	1a000005 	bne	c000deb0 <free_ex+0x214>
c000de98:	e51b2014 	ldr	r2, [fp, #-20]
c000de9c:	e51b300c 	ldr	r3, [fp, #-12]
c000dea0:	e2833008 	add	r3, r3, #8
c000dea4:	e1a00002 	mov	r0, r2
c000dea8:	e1a01003 	mov	r1, r3
c000deac:	ebfffbfd 	bl	c000cea8 <clear_bit>
c000deb0:	e51b3010 	ldr	r3, [fp, #-16]
c000deb4:	e3a02000 	mov	r2, #0
c000deb8:	e5832008 	str	r2, [r3, #8]
c000debc:	e51b3010 	ldr	r3, [fp, #-16]
c000dec0:	e3a02000 	mov	r2, #0
c000dec4:	e583200c 	str	r2, [r3, #12]
c000dec8:	e51b3008 	ldr	r3, [fp, #-8]
c000decc:	e5932004 	ldr	r2, [r3, #4]
c000ded0:	e51b3010 	ldr	r3, [fp, #-16]
c000ded4:	e5933004 	ldr	r3, [r3, #4]
c000ded8:	e3c33003 	bic	r3, r3, #3
c000dedc:	e0823003 	add	r3, r2, r3
c000dee0:	e2832008 	add	r2, r3, #8
c000dee4:	e51b3008 	ldr	r3, [fp, #-8]
c000dee8:	e5832004 	str	r2, [r3, #4]
c000deec:	e51b3008 	ldr	r3, [fp, #-8]
c000def0:	e5933004 	ldr	r3, [r3, #4]
c000def4:	e2033002 	and	r3, r3, #2
c000def8:	e3530000 	cmp	r3, #0
c000defc:	0a000070 	beq	c000e0c4 <free_ex+0x428>
c000df00:	e51b3008 	ldr	r3, [fp, #-8]
c000df04:	e5933000 	ldr	r3, [r3]
c000df08:	e50b3010 	str	r3, [fp, #-16]
c000df0c:	e51b3010 	ldr	r3, [fp, #-16]
c000df10:	e5933004 	ldr	r3, [r3, #4]
c000df14:	e3c31003 	bic	r1, r3, #3
c000df18:	e24b2014 	sub	r2, fp, #20
c000df1c:	e24b3018 	sub	r3, fp, #24
c000df20:	e1a00001 	mov	r0, r1
c000df24:	e1a01002 	mov	r1, r2
c000df28:	e1a02003 	mov	r2, r3
c000df2c:	ebfffc3b 	bl	c000d020 <MAPPING_INSERT>
c000df30:	e51b3010 	ldr	r3, [fp, #-16]
c000df34:	e593300c 	ldr	r3, [r3, #12]
c000df38:	e3530000 	cmp	r3, #0
c000df3c:	0a000004 	beq	c000df54 <free_ex+0x2b8>
c000df40:	e51b3010 	ldr	r3, [fp, #-16]
c000df44:	e593300c 	ldr	r3, [r3, #12]
c000df48:	e51b2010 	ldr	r2, [fp, #-16]
c000df4c:	e5922008 	ldr	r2, [r2, #8]
c000df50:	e5832008 	str	r2, [r3, #8]
c000df54:	e51b3010 	ldr	r3, [fp, #-16]
c000df58:	e5933008 	ldr	r3, [r3, #8]
c000df5c:	e3530000 	cmp	r3, #0
c000df60:	0a000004 	beq	c000df78 <free_ex+0x2dc>
c000df64:	e51b3010 	ldr	r3, [fp, #-16]
c000df68:	e5933008 	ldr	r3, [r3, #8]
c000df6c:	e51b2010 	ldr	r2, [fp, #-16]
c000df70:	e592200c 	ldr	r2, [r2, #12]
c000df74:	e583200c 	str	r2, [r3, #12]
c000df78:	e51b2014 	ldr	r2, [fp, #-20]
c000df7c:	e51b3018 	ldr	r3, [fp, #-24]
c000df80:	e51b100c 	ldr	r1, [fp, #-12]
c000df84:	e1a02282 	lsl	r2, r2, #5
c000df88:	e0823003 	add	r3, r2, r3
c000df8c:	e283201a 	add	r2, r3, #26
c000df90:	e3a03004 	mov	r3, #4
c000df94:	e1a02102 	lsl	r2, r2, #2
c000df98:	e0812002 	add	r2, r1, r2
c000df9c:	e0823003 	add	r3, r2, r3
c000dfa0:	e5932000 	ldr	r2, [r3]
c000dfa4:	e51b3010 	ldr	r3, [fp, #-16]
c000dfa8:	e1520003 	cmp	r2, r3
c000dfac:	1a000033 	bne	c000e080 <free_ex+0x3e4>
c000dfb0:	e51b1014 	ldr	r1, [fp, #-20]
c000dfb4:	e51b3018 	ldr	r3, [fp, #-24]
c000dfb8:	e51b2010 	ldr	r2, [fp, #-16]
c000dfbc:	e592200c 	ldr	r2, [r2, #12]
c000dfc0:	e51b000c 	ldr	r0, [fp, #-12]
c000dfc4:	e1a01281 	lsl	r1, r1, #5
c000dfc8:	e0813003 	add	r3, r1, r3
c000dfcc:	e283101a 	add	r1, r3, #26
c000dfd0:	e3a03004 	mov	r3, #4
c000dfd4:	e1a01101 	lsl	r1, r1, #2
c000dfd8:	e0801001 	add	r1, r0, r1
c000dfdc:	e0813003 	add	r3, r1, r3
c000dfe0:	e5832000 	str	r2, [r3]
c000dfe4:	e51b2014 	ldr	r2, [fp, #-20]
c000dfe8:	e51b3018 	ldr	r3, [fp, #-24]
c000dfec:	e51b100c 	ldr	r1, [fp, #-12]
c000dff0:	e1a02282 	lsl	r2, r2, #5
c000dff4:	e0823003 	add	r3, r2, r3
c000dff8:	e283201a 	add	r2, r3, #26
c000dffc:	e3a03004 	mov	r3, #4
c000e000:	e1a02102 	lsl	r2, r2, #2
c000e004:	e0812002 	add	r2, r1, r2
c000e008:	e0823003 	add	r3, r2, r3
c000e00c:	e5933000 	ldr	r3, [r3]
c000e010:	e3530000 	cmp	r3, #0
c000e014:	1a000019 	bne	c000e080 <free_ex+0x3e4>
c000e018:	e51b2018 	ldr	r2, [fp, #-24]
c000e01c:	e51b3014 	ldr	r3, [fp, #-20]
c000e020:	e2833002 	add	r3, r3, #2
c000e024:	e1a03103 	lsl	r3, r3, #2
c000e028:	e51b100c 	ldr	r1, [fp, #-12]
c000e02c:	e0813003 	add	r3, r1, r3
c000e030:	e2833004 	add	r3, r3, #4
c000e034:	e1a00002 	mov	r0, r2
c000e038:	e1a01003 	mov	r1, r3
c000e03c:	ebfffb99 	bl	c000cea8 <clear_bit>
c000e040:	e51b3014 	ldr	r3, [fp, #-20]
c000e044:	e51b100c 	ldr	r1, [fp, #-12]
c000e048:	e2832002 	add	r2, r3, #2
c000e04c:	e3a03004 	mov	r3, #4
c000e050:	e1a02102 	lsl	r2, r2, #2
c000e054:	e0812002 	add	r2, r1, r2
c000e058:	e0823003 	add	r3, r2, r3
c000e05c:	e5933000 	ldr	r3, [r3]
c000e060:	e3530000 	cmp	r3, #0
c000e064:	1a000005 	bne	c000e080 <free_ex+0x3e4>
c000e068:	e51b2014 	ldr	r2, [fp, #-20]
c000e06c:	e51b300c 	ldr	r3, [fp, #-12]
c000e070:	e2833008 	add	r3, r3, #8
c000e074:	e1a00002 	mov	r0, r2
c000e078:	e1a01003 	mov	r1, r3
c000e07c:	ebfffb89 	bl	c000cea8 <clear_bit>
c000e080:	e51b3010 	ldr	r3, [fp, #-16]
c000e084:	e3a02000 	mov	r2, #0
c000e088:	e5832008 	str	r2, [r3, #8]
c000e08c:	e51b3010 	ldr	r3, [fp, #-16]
c000e090:	e3a02000 	mov	r2, #0
c000e094:	e583200c 	str	r2, [r3, #12]
c000e098:	e51b3010 	ldr	r3, [fp, #-16]
c000e09c:	e5932004 	ldr	r2, [r3, #4]
c000e0a0:	e51b3008 	ldr	r3, [fp, #-8]
c000e0a4:	e5933004 	ldr	r3, [r3, #4]
c000e0a8:	e3c33003 	bic	r3, r3, #3
c000e0ac:	e0823003 	add	r3, r2, r3
c000e0b0:	e2832008 	add	r2, r3, #8
c000e0b4:	e51b3010 	ldr	r3, [fp, #-16]
c000e0b8:	e5832004 	str	r2, [r3, #4]
c000e0bc:	e51b3010 	ldr	r3, [fp, #-16]
c000e0c0:	e50b3008 	str	r3, [fp, #-8]
c000e0c4:	e51b3008 	ldr	r3, [fp, #-8]
c000e0c8:	e5933004 	ldr	r3, [r3, #4]
c000e0cc:	e3c31003 	bic	r1, r3, #3
c000e0d0:	e24b2014 	sub	r2, fp, #20
c000e0d4:	e24b3018 	sub	r3, fp, #24
c000e0d8:	e1a00001 	mov	r0, r1
c000e0dc:	e1a01002 	mov	r1, r2
c000e0e0:	e1a02003 	mov	r2, r3
c000e0e4:	ebfffbcd 	bl	c000d020 <MAPPING_INSERT>
c000e0e8:	e51b3008 	ldr	r3, [fp, #-8]
c000e0ec:	e3a02000 	mov	r2, #0
c000e0f0:	e5832008 	str	r2, [r3, #8]
c000e0f4:	e51b2014 	ldr	r2, [fp, #-20]
c000e0f8:	e51b3018 	ldr	r3, [fp, #-24]
c000e0fc:	e51b100c 	ldr	r1, [fp, #-12]
c000e100:	e1a02282 	lsl	r2, r2, #5
c000e104:	e0823003 	add	r3, r2, r3
c000e108:	e283201a 	add	r2, r3, #26
c000e10c:	e3a03004 	mov	r3, #4
c000e110:	e1a02102 	lsl	r2, r2, #2
c000e114:	e0812002 	add	r2, r1, r2
c000e118:	e0823003 	add	r3, r2, r3
c000e11c:	e5932000 	ldr	r2, [r3]
c000e120:	e51b3008 	ldr	r3, [fp, #-8]
c000e124:	e583200c 	str	r2, [r3, #12]
c000e128:	e51b2014 	ldr	r2, [fp, #-20]
c000e12c:	e51b3018 	ldr	r3, [fp, #-24]
c000e130:	e51b100c 	ldr	r1, [fp, #-12]
c000e134:	e1a02282 	lsl	r2, r2, #5
c000e138:	e0823003 	add	r3, r2, r3
c000e13c:	e283201a 	add	r2, r3, #26
c000e140:	e3a03004 	mov	r3, #4
c000e144:	e1a02102 	lsl	r2, r2, #2
c000e148:	e0812002 	add	r2, r1, r2
c000e14c:	e0823003 	add	r3, r2, r3
c000e150:	e5933000 	ldr	r3, [r3]
c000e154:	e3530000 	cmp	r3, #0
c000e158:	0a00000c 	beq	c000e190 <free_ex+0x4f4>
c000e15c:	e51b2014 	ldr	r2, [fp, #-20]
c000e160:	e51b3018 	ldr	r3, [fp, #-24]
c000e164:	e51b100c 	ldr	r1, [fp, #-12]
c000e168:	e1a02282 	lsl	r2, r2, #5
c000e16c:	e0823003 	add	r3, r2, r3
c000e170:	e283201a 	add	r2, r3, #26
c000e174:	e3a03004 	mov	r3, #4
c000e178:	e1a02102 	lsl	r2, r2, #2
c000e17c:	e0812002 	add	r2, r1, r2
c000e180:	e0823003 	add	r3, r2, r3
c000e184:	e5933000 	ldr	r3, [r3]
c000e188:	e51b2008 	ldr	r2, [fp, #-8]
c000e18c:	e5832008 	str	r2, [r3, #8]
c000e190:	e51b2014 	ldr	r2, [fp, #-20]
c000e194:	e51b3018 	ldr	r3, [fp, #-24]
c000e198:	e51b100c 	ldr	r1, [fp, #-12]
c000e19c:	e1a02282 	lsl	r2, r2, #5
c000e1a0:	e0823003 	add	r3, r2, r3
c000e1a4:	e283201a 	add	r2, r3, #26
c000e1a8:	e3a03004 	mov	r3, #4
c000e1ac:	e1a02102 	lsl	r2, r2, #2
c000e1b0:	e0812002 	add	r2, r1, r2
c000e1b4:	e0823003 	add	r3, r2, r3
c000e1b8:	e51b2008 	ldr	r2, [fp, #-8]
c000e1bc:	e5832000 	str	r2, [r3]
c000e1c0:	e51b2018 	ldr	r2, [fp, #-24]
c000e1c4:	e51b3014 	ldr	r3, [fp, #-20]
c000e1c8:	e2833002 	add	r3, r3, #2
c000e1cc:	e1a03103 	lsl	r3, r3, #2
c000e1d0:	e51b100c 	ldr	r1, [fp, #-12]
c000e1d4:	e0813003 	add	r3, r1, r3
c000e1d8:	e2833004 	add	r3, r3, #4
c000e1dc:	e1a00002 	mov	r0, r2
c000e1e0:	e1a01003 	mov	r1, r3
c000e1e4:	ebfffb16 	bl	c000ce44 <set_bit>
c000e1e8:	e51b2014 	ldr	r2, [fp, #-20]
c000e1ec:	e51b300c 	ldr	r3, [fp, #-12]
c000e1f0:	e2833008 	add	r3, r3, #8
c000e1f4:	e1a00002 	mov	r0, r2
c000e1f8:	e1a01003 	mov	r1, r3
c000e1fc:	ebfffb10 	bl	c000ce44 <set_bit>
c000e200:	e51b3008 	ldr	r3, [fp, #-8]
c000e204:	e5933004 	ldr	r3, [r3, #4]
c000e208:	e3c33003 	bic	r3, r3, #3
c000e20c:	e2833008 	add	r3, r3, #8
c000e210:	e51b2008 	ldr	r2, [fp, #-8]
c000e214:	e0823003 	add	r3, r2, r3
c000e218:	e50b3010 	str	r3, [fp, #-16]
c000e21c:	e51b3010 	ldr	r3, [fp, #-16]
c000e220:	e5933004 	ldr	r3, [r3, #4]
c000e224:	e3832002 	orr	r2, r3, #2
c000e228:	e51b3010 	ldr	r3, [fp, #-16]
c000e22c:	e5832004 	str	r2, [r3, #4]
c000e230:	e51b3010 	ldr	r3, [fp, #-16]
c000e234:	e51b2008 	ldr	r2, [fp, #-8]
c000e238:	e5832000 	str	r2, [r3]
c000e23c:	e24bd004 	sub	sp, fp, #4
c000e240:	e8bd4800 	pop	{fp, lr}
c000e244:	e12fff1e 	bx	lr

c000e248 <realloc_ex>:
c000e248:	e92d4800 	push	{fp, lr}
c000e24c:	e28db004 	add	fp, sp, #4
c000e250:	e24dd038 	sub	sp, sp, #56	; 0x38
c000e254:	e50b0030 	str	r0, [fp, #-48]	; 0x30
c000e258:	e50b1034 	str	r1, [fp, #-52]	; 0x34
c000e25c:	e50b2038 	str	r2, [fp, #-56]	; 0x38
c000e260:	e51b3038 	ldr	r3, [fp, #-56]	; 0x38
c000e264:	e50b3010 	str	r3, [fp, #-16]
c000e268:	e51b3030 	ldr	r3, [fp, #-48]	; 0x30
c000e26c:	e3530000 	cmp	r3, #0
c000e270:	1a00000c 	bne	c000e2a8 <realloc_ex+0x60>
c000e274:	e51b3034 	ldr	r3, [fp, #-52]	; 0x34
c000e278:	e3530000 	cmp	r3, #0
c000e27c:	0a000004 	beq	c000e294 <realloc_ex+0x4c>
c000e280:	e51b0034 	ldr	r0, [fp, #-52]	; 0x34
c000e284:	e51b1038 	ldr	r1, [fp, #-56]	; 0x38
c000e288:	ebfffd95 	bl	c000d8e4 <malloc_ex>
c000e28c:	e1a03000 	mov	r3, r0
c000e290:	ea000221 	b	c000eb1c <realloc_ex+0x8d4>
c000e294:	e51b3034 	ldr	r3, [fp, #-52]	; 0x34
c000e298:	e3530000 	cmp	r3, #0
c000e29c:	1a000009 	bne	c000e2c8 <realloc_ex+0x80>
c000e2a0:	e3a03000 	mov	r3, #0
c000e2a4:	ea00021c 	b	c000eb1c <realloc_ex+0x8d4>
c000e2a8:	e51b3034 	ldr	r3, [fp, #-52]	; 0x34
c000e2ac:	e3530000 	cmp	r3, #0
c000e2b0:	1a000004 	bne	c000e2c8 <realloc_ex+0x80>
c000e2b4:	e51b0030 	ldr	r0, [fp, #-48]	; 0x30
c000e2b8:	e51b1038 	ldr	r1, [fp, #-56]	; 0x38
c000e2bc:	ebfffe76 	bl	c000dc9c <free_ex>
c000e2c0:	e3a03000 	mov	r3, #0
c000e2c4:	ea000214 	b	c000eb1c <realloc_ex+0x8d4>
c000e2c8:	e51b3030 	ldr	r3, [fp, #-48]	; 0x30
c000e2cc:	e2433008 	sub	r3, r3, #8
c000e2d0:	e50b3014 	str	r3, [fp, #-20]
c000e2d4:	e51b3014 	ldr	r3, [fp, #-20]
c000e2d8:	e5933004 	ldr	r3, [r3, #4]
c000e2dc:	e3c33003 	bic	r3, r3, #3
c000e2e0:	e2833008 	add	r3, r3, #8
c000e2e4:	e51b2014 	ldr	r2, [fp, #-20]
c000e2e8:	e0823003 	add	r3, r2, r3
c000e2ec:	e50b3008 	str	r3, [fp, #-8]
c000e2f0:	e51b3034 	ldr	r3, [fp, #-52]	; 0x34
c000e2f4:	e3530007 	cmp	r3, #7
c000e2f8:	9a000003 	bls	c000e30c <realloc_ex+0xc4>
c000e2fc:	e51b3034 	ldr	r3, [fp, #-52]	; 0x34
c000e300:	e2833007 	add	r3, r3, #7
c000e304:	e3c33007 	bic	r3, r3, #7
c000e308:	ea000000 	b	c000e310 <realloc_ex+0xc8>
c000e30c:	e3a03008 	mov	r3, #8
c000e310:	e50b3034 	str	r3, [fp, #-52]	; 0x34
c000e314:	e51b3014 	ldr	r3, [fp, #-20]
c000e318:	e5933004 	ldr	r3, [r3, #4]
c000e31c:	e3c33003 	bic	r3, r3, #3
c000e320:	e50b300c 	str	r3, [fp, #-12]
c000e324:	e51b2034 	ldr	r2, [fp, #-52]	; 0x34
c000e328:	e51b300c 	ldr	r3, [fp, #-12]
c000e32c:	e1520003 	cmp	r2, r3
c000e330:	8a0000e6 	bhi	c000e6d0 <realloc_ex+0x488>
c000e334:	e51b3008 	ldr	r3, [fp, #-8]
c000e338:	e5933004 	ldr	r3, [r3, #4]
c000e33c:	e2033001 	and	r3, r3, #1
c000e340:	e3530000 	cmp	r3, #0
c000e344:	0a000070 	beq	c000e50c <realloc_ex+0x2c4>
c000e348:	e51b3008 	ldr	r3, [fp, #-8]
c000e34c:	e5933004 	ldr	r3, [r3, #4]
c000e350:	e3c31003 	bic	r1, r3, #3
c000e354:	e24b2024 	sub	r2, fp, #36	; 0x24
c000e358:	e24b3028 	sub	r3, fp, #40	; 0x28
c000e35c:	e1a00001 	mov	r0, r1
c000e360:	e1a01002 	mov	r1, r2
c000e364:	e1a02003 	mov	r2, r3
c000e368:	ebfffb2c 	bl	c000d020 <MAPPING_INSERT>
c000e36c:	e51b3008 	ldr	r3, [fp, #-8]
c000e370:	e593300c 	ldr	r3, [r3, #12]
c000e374:	e3530000 	cmp	r3, #0
c000e378:	0a000004 	beq	c000e390 <realloc_ex+0x148>
c000e37c:	e51b3008 	ldr	r3, [fp, #-8]
c000e380:	e593300c 	ldr	r3, [r3, #12]
c000e384:	e51b2008 	ldr	r2, [fp, #-8]
c000e388:	e5922008 	ldr	r2, [r2, #8]
c000e38c:	e5832008 	str	r2, [r3, #8]
c000e390:	e51b3008 	ldr	r3, [fp, #-8]
c000e394:	e5933008 	ldr	r3, [r3, #8]
c000e398:	e3530000 	cmp	r3, #0
c000e39c:	0a000004 	beq	c000e3b4 <realloc_ex+0x16c>
c000e3a0:	e51b3008 	ldr	r3, [fp, #-8]
c000e3a4:	e5933008 	ldr	r3, [r3, #8]
c000e3a8:	e51b2008 	ldr	r2, [fp, #-8]
c000e3ac:	e592200c 	ldr	r2, [r2, #12]
c000e3b0:	e583200c 	str	r2, [r3, #12]
c000e3b4:	e51b2024 	ldr	r2, [fp, #-36]	; 0x24
c000e3b8:	e51b3028 	ldr	r3, [fp, #-40]	; 0x28
c000e3bc:	e51b1010 	ldr	r1, [fp, #-16]
c000e3c0:	e1a02282 	lsl	r2, r2, #5
c000e3c4:	e0823003 	add	r3, r2, r3
c000e3c8:	e283201a 	add	r2, r3, #26
c000e3cc:	e3a03004 	mov	r3, #4
c000e3d0:	e1a02102 	lsl	r2, r2, #2
c000e3d4:	e0812002 	add	r2, r1, r2
c000e3d8:	e0823003 	add	r3, r2, r3
c000e3dc:	e5932000 	ldr	r2, [r3]
c000e3e0:	e51b3008 	ldr	r3, [fp, #-8]
c000e3e4:	e1520003 	cmp	r2, r3
c000e3e8:	1a000033 	bne	c000e4bc <realloc_ex+0x274>
c000e3ec:	e51b1024 	ldr	r1, [fp, #-36]	; 0x24
c000e3f0:	e51b3028 	ldr	r3, [fp, #-40]	; 0x28
c000e3f4:	e51b2008 	ldr	r2, [fp, #-8]
c000e3f8:	e592200c 	ldr	r2, [r2, #12]
c000e3fc:	e51b0010 	ldr	r0, [fp, #-16]
c000e400:	e1a01281 	lsl	r1, r1, #5
c000e404:	e0813003 	add	r3, r1, r3
c000e408:	e283101a 	add	r1, r3, #26
c000e40c:	e3a03004 	mov	r3, #4
c000e410:	e1a01101 	lsl	r1, r1, #2
c000e414:	e0801001 	add	r1, r0, r1
c000e418:	e0813003 	add	r3, r1, r3
c000e41c:	e5832000 	str	r2, [r3]
c000e420:	e51b2024 	ldr	r2, [fp, #-36]	; 0x24
c000e424:	e51b3028 	ldr	r3, [fp, #-40]	; 0x28
c000e428:	e51b1010 	ldr	r1, [fp, #-16]
c000e42c:	e1a02282 	lsl	r2, r2, #5
c000e430:	e0823003 	add	r3, r2, r3
c000e434:	e283201a 	add	r2, r3, #26
c000e438:	e3a03004 	mov	r3, #4
c000e43c:	e1a02102 	lsl	r2, r2, #2
c000e440:	e0812002 	add	r2, r1, r2
c000e444:	e0823003 	add	r3, r2, r3
c000e448:	e5933000 	ldr	r3, [r3]
c000e44c:	e3530000 	cmp	r3, #0
c000e450:	1a000019 	bne	c000e4bc <realloc_ex+0x274>
c000e454:	e51b2028 	ldr	r2, [fp, #-40]	; 0x28
c000e458:	e51b3024 	ldr	r3, [fp, #-36]	; 0x24
c000e45c:	e2833002 	add	r3, r3, #2
c000e460:	e1a03103 	lsl	r3, r3, #2
c000e464:	e51b1010 	ldr	r1, [fp, #-16]
c000e468:	e0813003 	add	r3, r1, r3
c000e46c:	e2833004 	add	r3, r3, #4
c000e470:	e1a00002 	mov	r0, r2
c000e474:	e1a01003 	mov	r1, r3
c000e478:	ebfffa8a 	bl	c000cea8 <clear_bit>
c000e47c:	e51b3024 	ldr	r3, [fp, #-36]	; 0x24
c000e480:	e51b1010 	ldr	r1, [fp, #-16]
c000e484:	e2832002 	add	r2, r3, #2
c000e488:	e3a03004 	mov	r3, #4
c000e48c:	e1a02102 	lsl	r2, r2, #2
c000e490:	e0812002 	add	r2, r1, r2
c000e494:	e0823003 	add	r3, r2, r3
c000e498:	e5933000 	ldr	r3, [r3]
c000e49c:	e3530000 	cmp	r3, #0
c000e4a0:	1a000005 	bne	c000e4bc <realloc_ex+0x274>
c000e4a4:	e51b2024 	ldr	r2, [fp, #-36]	; 0x24
c000e4a8:	e51b3010 	ldr	r3, [fp, #-16]
c000e4ac:	e2833008 	add	r3, r3, #8
c000e4b0:	e1a00002 	mov	r0, r2
c000e4b4:	e1a01003 	mov	r1, r3
c000e4b8:	ebfffa7a 	bl	c000cea8 <clear_bit>
c000e4bc:	e51b3008 	ldr	r3, [fp, #-8]
c000e4c0:	e3a02000 	mov	r2, #0
c000e4c4:	e5832008 	str	r2, [r3, #8]
c000e4c8:	e51b3008 	ldr	r3, [fp, #-8]
c000e4cc:	e3a02000 	mov	r2, #0
c000e4d0:	e583200c 	str	r2, [r3, #12]
c000e4d4:	e51b3008 	ldr	r3, [fp, #-8]
c000e4d8:	e5933004 	ldr	r3, [r3, #4]
c000e4dc:	e3c32003 	bic	r2, r3, #3
c000e4e0:	e51b300c 	ldr	r3, [fp, #-12]
c000e4e4:	e0823003 	add	r3, r2, r3
c000e4e8:	e2833008 	add	r3, r3, #8
c000e4ec:	e50b300c 	str	r3, [fp, #-12]
c000e4f0:	e51b3008 	ldr	r3, [fp, #-8]
c000e4f4:	e5933004 	ldr	r3, [r3, #4]
c000e4f8:	e3c33003 	bic	r3, r3, #3
c000e4fc:	e2833008 	add	r3, r3, #8
c000e500:	e51b2008 	ldr	r2, [fp, #-8]
c000e504:	e0823003 	add	r3, r2, r3
c000e508:	e50b3008 	str	r3, [fp, #-8]
c000e50c:	e51b200c 	ldr	r2, [fp, #-12]
c000e510:	e51b3034 	ldr	r3, [fp, #-52]	; 0x34
c000e514:	e0633002 	rsb	r3, r3, r2
c000e518:	e50b300c 	str	r3, [fp, #-12]
c000e51c:	e51b300c 	ldr	r3, [fp, #-12]
c000e520:	e353000f 	cmp	r3, #15
c000e524:	9a000066 	bls	c000e6c4 <realloc_ex+0x47c>
c000e528:	e51b300c 	ldr	r3, [fp, #-12]
c000e52c:	e2433008 	sub	r3, r3, #8
c000e530:	e50b300c 	str	r3, [fp, #-12]
c000e534:	e51b3034 	ldr	r3, [fp, #-52]	; 0x34
c000e538:	e2833008 	add	r3, r3, #8
c000e53c:	e51b2014 	ldr	r2, [fp, #-20]
c000e540:	e0823003 	add	r3, r2, r3
c000e544:	e50b3018 	str	r3, [fp, #-24]
c000e548:	e51b300c 	ldr	r3, [fp, #-12]
c000e54c:	e3832001 	orr	r2, r3, #1
c000e550:	e51b3018 	ldr	r3, [fp, #-24]
c000e554:	e5832004 	str	r2, [r3, #4]
c000e558:	e51b3008 	ldr	r3, [fp, #-8]
c000e55c:	e51b2018 	ldr	r2, [fp, #-24]
c000e560:	e5832000 	str	r2, [r3]
c000e564:	e51b3008 	ldr	r3, [fp, #-8]
c000e568:	e5933004 	ldr	r3, [r3, #4]
c000e56c:	e3832002 	orr	r2, r3, #2
c000e570:	e51b3008 	ldr	r3, [fp, #-8]
c000e574:	e5832004 	str	r2, [r3, #4]
c000e578:	e24b2024 	sub	r2, fp, #36	; 0x24
c000e57c:	e24b3028 	sub	r3, fp, #40	; 0x28
c000e580:	e51b000c 	ldr	r0, [fp, #-12]
c000e584:	e1a01002 	mov	r1, r2
c000e588:	e1a02003 	mov	r2, r3
c000e58c:	ebfffaa3 	bl	c000d020 <MAPPING_INSERT>
c000e590:	e51b3018 	ldr	r3, [fp, #-24]
c000e594:	e3a02000 	mov	r2, #0
c000e598:	e5832008 	str	r2, [r3, #8]
c000e59c:	e51b2024 	ldr	r2, [fp, #-36]	; 0x24
c000e5a0:	e51b3028 	ldr	r3, [fp, #-40]	; 0x28
c000e5a4:	e51b1010 	ldr	r1, [fp, #-16]
c000e5a8:	e1a02282 	lsl	r2, r2, #5
c000e5ac:	e0823003 	add	r3, r2, r3
c000e5b0:	e283201a 	add	r2, r3, #26
c000e5b4:	e3a03004 	mov	r3, #4
c000e5b8:	e1a02102 	lsl	r2, r2, #2
c000e5bc:	e0812002 	add	r2, r1, r2
c000e5c0:	e0823003 	add	r3, r2, r3
c000e5c4:	e5932000 	ldr	r2, [r3]
c000e5c8:	e51b3018 	ldr	r3, [fp, #-24]
c000e5cc:	e583200c 	str	r2, [r3, #12]
c000e5d0:	e51b2024 	ldr	r2, [fp, #-36]	; 0x24
c000e5d4:	e51b3028 	ldr	r3, [fp, #-40]	; 0x28
c000e5d8:	e51b1010 	ldr	r1, [fp, #-16]
c000e5dc:	e1a02282 	lsl	r2, r2, #5
c000e5e0:	e0823003 	add	r3, r2, r3
c000e5e4:	e283201a 	add	r2, r3, #26
c000e5e8:	e3a03004 	mov	r3, #4
c000e5ec:	e1a02102 	lsl	r2, r2, #2
c000e5f0:	e0812002 	add	r2, r1, r2
c000e5f4:	e0823003 	add	r3, r2, r3
c000e5f8:	e5933000 	ldr	r3, [r3]
c000e5fc:	e3530000 	cmp	r3, #0
c000e600:	0a00000c 	beq	c000e638 <realloc_ex+0x3f0>
c000e604:	e51b2024 	ldr	r2, [fp, #-36]	; 0x24
c000e608:	e51b3028 	ldr	r3, [fp, #-40]	; 0x28
c000e60c:	e51b1010 	ldr	r1, [fp, #-16]
c000e610:	e1a02282 	lsl	r2, r2, #5
c000e614:	e0823003 	add	r3, r2, r3
c000e618:	e283201a 	add	r2, r3, #26
c000e61c:	e3a03004 	mov	r3, #4
c000e620:	e1a02102 	lsl	r2, r2, #2
c000e624:	e0812002 	add	r2, r1, r2
c000e628:	e0823003 	add	r3, r2, r3
c000e62c:	e5933000 	ldr	r3, [r3]
c000e630:	e51b2018 	ldr	r2, [fp, #-24]
c000e634:	e5832008 	str	r2, [r3, #8]
c000e638:	e51b2024 	ldr	r2, [fp, #-36]	; 0x24
c000e63c:	e51b3028 	ldr	r3, [fp, #-40]	; 0x28
c000e640:	e51b1010 	ldr	r1, [fp, #-16]
c000e644:	e1a02282 	lsl	r2, r2, #5
c000e648:	e0823003 	add	r3, r2, r3
c000e64c:	e283201a 	add	r2, r3, #26
c000e650:	e3a03004 	mov	r3, #4
c000e654:	e1a02102 	lsl	r2, r2, #2
c000e658:	e0812002 	add	r2, r1, r2
c000e65c:	e0823003 	add	r3, r2, r3
c000e660:	e51b2018 	ldr	r2, [fp, #-24]
c000e664:	e5832000 	str	r2, [r3]
c000e668:	e51b2028 	ldr	r2, [fp, #-40]	; 0x28
c000e66c:	e51b3024 	ldr	r3, [fp, #-36]	; 0x24
c000e670:	e2833002 	add	r3, r3, #2
c000e674:	e1a03103 	lsl	r3, r3, #2
c000e678:	e51b1010 	ldr	r1, [fp, #-16]
c000e67c:	e0813003 	add	r3, r1, r3
c000e680:	e2833004 	add	r3, r3, #4
c000e684:	e1a00002 	mov	r0, r2
c000e688:	e1a01003 	mov	r1, r3
c000e68c:	ebfff9ec 	bl	c000ce44 <set_bit>
c000e690:	e51b2024 	ldr	r2, [fp, #-36]	; 0x24
c000e694:	e51b3010 	ldr	r3, [fp, #-16]
c000e698:	e2833008 	add	r3, r3, #8
c000e69c:	e1a00002 	mov	r0, r2
c000e6a0:	e1a01003 	mov	r1, r3
c000e6a4:	ebfff9e6 	bl	c000ce44 <set_bit>
c000e6a8:	e51b3014 	ldr	r3, [fp, #-20]
c000e6ac:	e5933004 	ldr	r3, [r3, #4]
c000e6b0:	e2032002 	and	r2, r3, #2
c000e6b4:	e51b3034 	ldr	r3, [fp, #-52]	; 0x34
c000e6b8:	e1822003 	orr	r2, r2, r3
c000e6bc:	e51b3014 	ldr	r3, [fp, #-20]
c000e6c0:	e5832004 	str	r2, [r3, #4]
c000e6c4:	e51b3014 	ldr	r3, [fp, #-20]
c000e6c8:	e2833008 	add	r3, r3, #8
c000e6cc:	ea000112 	b	c000eb1c <realloc_ex+0x8d4>
c000e6d0:	e51b3008 	ldr	r3, [fp, #-8]
c000e6d4:	e5933004 	ldr	r3, [r3, #4]
c000e6d8:	e2033001 	and	r3, r3, #1
c000e6dc:	e3530000 	cmp	r3, #0
c000e6e0:	0a0000f5 	beq	c000eabc <realloc_ex+0x874>
c000e6e4:	e51b3008 	ldr	r3, [fp, #-8]
c000e6e8:	e5933004 	ldr	r3, [r3, #4]
c000e6ec:	e3c32003 	bic	r2, r3, #3
c000e6f0:	e51b300c 	ldr	r3, [fp, #-12]
c000e6f4:	e0822003 	add	r2, r2, r3
c000e6f8:	e51b3034 	ldr	r3, [fp, #-52]	; 0x34
c000e6fc:	e1520003 	cmp	r2, r3
c000e700:	3a0000ed 	bcc	c000eabc <realloc_ex+0x874>
c000e704:	e51b3008 	ldr	r3, [fp, #-8]
c000e708:	e5933004 	ldr	r3, [r3, #4]
c000e70c:	e3c31003 	bic	r1, r3, #3
c000e710:	e24b2024 	sub	r2, fp, #36	; 0x24
c000e714:	e24b3028 	sub	r3, fp, #40	; 0x28
c000e718:	e1a00001 	mov	r0, r1
c000e71c:	e1a01002 	mov	r1, r2
c000e720:	e1a02003 	mov	r2, r3
c000e724:	ebfffa3d 	bl	c000d020 <MAPPING_INSERT>
c000e728:	e51b3008 	ldr	r3, [fp, #-8]
c000e72c:	e593300c 	ldr	r3, [r3, #12]
c000e730:	e3530000 	cmp	r3, #0
c000e734:	0a000004 	beq	c000e74c <realloc_ex+0x504>
c000e738:	e51b3008 	ldr	r3, [fp, #-8]
c000e73c:	e593300c 	ldr	r3, [r3, #12]
c000e740:	e51b2008 	ldr	r2, [fp, #-8]
c000e744:	e5922008 	ldr	r2, [r2, #8]
c000e748:	e5832008 	str	r2, [r3, #8]
c000e74c:	e51b3008 	ldr	r3, [fp, #-8]
c000e750:	e5933008 	ldr	r3, [r3, #8]
c000e754:	e3530000 	cmp	r3, #0
c000e758:	0a000004 	beq	c000e770 <realloc_ex+0x528>
c000e75c:	e51b3008 	ldr	r3, [fp, #-8]
c000e760:	e5933008 	ldr	r3, [r3, #8]
c000e764:	e51b2008 	ldr	r2, [fp, #-8]
c000e768:	e592200c 	ldr	r2, [r2, #12]
c000e76c:	e583200c 	str	r2, [r3, #12]
c000e770:	e51b2024 	ldr	r2, [fp, #-36]	; 0x24
c000e774:	e51b3028 	ldr	r3, [fp, #-40]	; 0x28
c000e778:	e51b1010 	ldr	r1, [fp, #-16]
c000e77c:	e1a02282 	lsl	r2, r2, #5
c000e780:	e0823003 	add	r3, r2, r3
c000e784:	e283201a 	add	r2, r3, #26
c000e788:	e3a03004 	mov	r3, #4
c000e78c:	e1a02102 	lsl	r2, r2, #2
c000e790:	e0812002 	add	r2, r1, r2
c000e794:	e0823003 	add	r3, r2, r3
c000e798:	e5932000 	ldr	r2, [r3]
c000e79c:	e51b3008 	ldr	r3, [fp, #-8]
c000e7a0:	e1520003 	cmp	r2, r3
c000e7a4:	1a000033 	bne	c000e878 <realloc_ex+0x630>
c000e7a8:	e51b1024 	ldr	r1, [fp, #-36]	; 0x24
c000e7ac:	e51b3028 	ldr	r3, [fp, #-40]	; 0x28
c000e7b0:	e51b2008 	ldr	r2, [fp, #-8]
c000e7b4:	e592200c 	ldr	r2, [r2, #12]
c000e7b8:	e51b0010 	ldr	r0, [fp, #-16]
c000e7bc:	e1a01281 	lsl	r1, r1, #5
c000e7c0:	e0813003 	add	r3, r1, r3
c000e7c4:	e283101a 	add	r1, r3, #26
c000e7c8:	e3a03004 	mov	r3, #4
c000e7cc:	e1a01101 	lsl	r1, r1, #2
c000e7d0:	e0801001 	add	r1, r0, r1
c000e7d4:	e0813003 	add	r3, r1, r3
c000e7d8:	e5832000 	str	r2, [r3]
c000e7dc:	e51b2024 	ldr	r2, [fp, #-36]	; 0x24
c000e7e0:	e51b3028 	ldr	r3, [fp, #-40]	; 0x28
c000e7e4:	e51b1010 	ldr	r1, [fp, #-16]
c000e7e8:	e1a02282 	lsl	r2, r2, #5
c000e7ec:	e0823003 	add	r3, r2, r3
c000e7f0:	e283201a 	add	r2, r3, #26
c000e7f4:	e3a03004 	mov	r3, #4
c000e7f8:	e1a02102 	lsl	r2, r2, #2
c000e7fc:	e0812002 	add	r2, r1, r2
c000e800:	e0823003 	add	r3, r2, r3
c000e804:	e5933000 	ldr	r3, [r3]
c000e808:	e3530000 	cmp	r3, #0
c000e80c:	1a000019 	bne	c000e878 <realloc_ex+0x630>
c000e810:	e51b2028 	ldr	r2, [fp, #-40]	; 0x28
c000e814:	e51b3024 	ldr	r3, [fp, #-36]	; 0x24
c000e818:	e2833002 	add	r3, r3, #2
c000e81c:	e1a03103 	lsl	r3, r3, #2
c000e820:	e51b1010 	ldr	r1, [fp, #-16]
c000e824:	e0813003 	add	r3, r1, r3
c000e828:	e2833004 	add	r3, r3, #4
c000e82c:	e1a00002 	mov	r0, r2
c000e830:	e1a01003 	mov	r1, r3
c000e834:	ebfff99b 	bl	c000cea8 <clear_bit>
c000e838:	e51b3024 	ldr	r3, [fp, #-36]	; 0x24
c000e83c:	e51b1010 	ldr	r1, [fp, #-16]
c000e840:	e2832002 	add	r2, r3, #2
c000e844:	e3a03004 	mov	r3, #4
c000e848:	e1a02102 	lsl	r2, r2, #2
c000e84c:	e0812002 	add	r2, r1, r2
c000e850:	e0823003 	add	r3, r2, r3
c000e854:	e5933000 	ldr	r3, [r3]
c000e858:	e3530000 	cmp	r3, #0
c000e85c:	1a000005 	bne	c000e878 <realloc_ex+0x630>
c000e860:	e51b2024 	ldr	r2, [fp, #-36]	; 0x24
c000e864:	e51b3010 	ldr	r3, [fp, #-16]
c000e868:	e2833008 	add	r3, r3, #8
c000e86c:	e1a00002 	mov	r0, r2
c000e870:	e1a01003 	mov	r1, r3
c000e874:	ebfff98b 	bl	c000cea8 <clear_bit>
c000e878:	e51b3008 	ldr	r3, [fp, #-8]
c000e87c:	e3a02000 	mov	r2, #0
c000e880:	e5832008 	str	r2, [r3, #8]
c000e884:	e51b3008 	ldr	r3, [fp, #-8]
c000e888:	e3a02000 	mov	r2, #0
c000e88c:	e583200c 	str	r2, [r3, #12]
c000e890:	e51b3014 	ldr	r3, [fp, #-20]
c000e894:	e5932004 	ldr	r2, [r3, #4]
c000e898:	e51b3008 	ldr	r3, [fp, #-8]
c000e89c:	e5933004 	ldr	r3, [r3, #4]
c000e8a0:	e3c33003 	bic	r3, r3, #3
c000e8a4:	e0823003 	add	r3, r2, r3
c000e8a8:	e2832008 	add	r2, r3, #8
c000e8ac:	e51b3014 	ldr	r3, [fp, #-20]
c000e8b0:	e5832004 	str	r2, [r3, #4]
c000e8b4:	e51b3014 	ldr	r3, [fp, #-20]
c000e8b8:	e5933004 	ldr	r3, [r3, #4]
c000e8bc:	e3c33003 	bic	r3, r3, #3
c000e8c0:	e2833008 	add	r3, r3, #8
c000e8c4:	e51b2014 	ldr	r2, [fp, #-20]
c000e8c8:	e0823003 	add	r3, r2, r3
c000e8cc:	e50b3008 	str	r3, [fp, #-8]
c000e8d0:	e51b3008 	ldr	r3, [fp, #-8]
c000e8d4:	e51b2014 	ldr	r2, [fp, #-20]
c000e8d8:	e5832000 	str	r2, [r3]
c000e8dc:	e51b3008 	ldr	r3, [fp, #-8]
c000e8e0:	e5933004 	ldr	r3, [r3, #4]
c000e8e4:	e3c32002 	bic	r2, r3, #2
c000e8e8:	e51b3008 	ldr	r3, [fp, #-8]
c000e8ec:	e5832004 	str	r2, [r3, #4]
c000e8f0:	e51b3014 	ldr	r3, [fp, #-20]
c000e8f4:	e5933004 	ldr	r3, [r3, #4]
c000e8f8:	e3c32003 	bic	r2, r3, #3
c000e8fc:	e51b3034 	ldr	r3, [fp, #-52]	; 0x34
c000e900:	e0633002 	rsb	r3, r3, r2
c000e904:	e50b300c 	str	r3, [fp, #-12]
c000e908:	e51b300c 	ldr	r3, [fp, #-12]
c000e90c:	e353000f 	cmp	r3, #15
c000e910:	9a000066 	bls	c000eab0 <realloc_ex+0x868>
c000e914:	e51b300c 	ldr	r3, [fp, #-12]
c000e918:	e2433008 	sub	r3, r3, #8
c000e91c:	e50b300c 	str	r3, [fp, #-12]
c000e920:	e51b3034 	ldr	r3, [fp, #-52]	; 0x34
c000e924:	e2833008 	add	r3, r3, #8
c000e928:	e51b2014 	ldr	r2, [fp, #-20]
c000e92c:	e0823003 	add	r3, r2, r3
c000e930:	e50b3018 	str	r3, [fp, #-24]
c000e934:	e51b300c 	ldr	r3, [fp, #-12]
c000e938:	e3832001 	orr	r2, r3, #1
c000e93c:	e51b3018 	ldr	r3, [fp, #-24]
c000e940:	e5832004 	str	r2, [r3, #4]
c000e944:	e51b3008 	ldr	r3, [fp, #-8]
c000e948:	e51b2018 	ldr	r2, [fp, #-24]
c000e94c:	e5832000 	str	r2, [r3]
c000e950:	e51b3008 	ldr	r3, [fp, #-8]
c000e954:	e5933004 	ldr	r3, [r3, #4]
c000e958:	e3832002 	orr	r2, r3, #2
c000e95c:	e51b3008 	ldr	r3, [fp, #-8]
c000e960:	e5832004 	str	r2, [r3, #4]
c000e964:	e24b2024 	sub	r2, fp, #36	; 0x24
c000e968:	e24b3028 	sub	r3, fp, #40	; 0x28
c000e96c:	e51b000c 	ldr	r0, [fp, #-12]
c000e970:	e1a01002 	mov	r1, r2
c000e974:	e1a02003 	mov	r2, r3
c000e978:	ebfff9a8 	bl	c000d020 <MAPPING_INSERT>
c000e97c:	e51b3018 	ldr	r3, [fp, #-24]
c000e980:	e3a02000 	mov	r2, #0
c000e984:	e5832008 	str	r2, [r3, #8]
c000e988:	e51b2024 	ldr	r2, [fp, #-36]	; 0x24
c000e98c:	e51b3028 	ldr	r3, [fp, #-40]	; 0x28
c000e990:	e51b1010 	ldr	r1, [fp, #-16]
c000e994:	e1a02282 	lsl	r2, r2, #5
c000e998:	e0823003 	add	r3, r2, r3
c000e99c:	e283201a 	add	r2, r3, #26
c000e9a0:	e3a03004 	mov	r3, #4
c000e9a4:	e1a02102 	lsl	r2, r2, #2
c000e9a8:	e0812002 	add	r2, r1, r2
c000e9ac:	e0823003 	add	r3, r2, r3
c000e9b0:	e5932000 	ldr	r2, [r3]
c000e9b4:	e51b3018 	ldr	r3, [fp, #-24]
c000e9b8:	e583200c 	str	r2, [r3, #12]
c000e9bc:	e51b2024 	ldr	r2, [fp, #-36]	; 0x24
c000e9c0:	e51b3028 	ldr	r3, [fp, #-40]	; 0x28
c000e9c4:	e51b1010 	ldr	r1, [fp, #-16]
c000e9c8:	e1a02282 	lsl	r2, r2, #5
c000e9cc:	e0823003 	add	r3, r2, r3
c000e9d0:	e283201a 	add	r2, r3, #26
c000e9d4:	e3a03004 	mov	r3, #4
c000e9d8:	e1a02102 	lsl	r2, r2, #2
c000e9dc:	e0812002 	add	r2, r1, r2
c000e9e0:	e0823003 	add	r3, r2, r3
c000e9e4:	e5933000 	ldr	r3, [r3]
c000e9e8:	e3530000 	cmp	r3, #0
c000e9ec:	0a00000c 	beq	c000ea24 <realloc_ex+0x7dc>
c000e9f0:	e51b2024 	ldr	r2, [fp, #-36]	; 0x24
c000e9f4:	e51b3028 	ldr	r3, [fp, #-40]	; 0x28
c000e9f8:	e51b1010 	ldr	r1, [fp, #-16]
c000e9fc:	e1a02282 	lsl	r2, r2, #5
c000ea00:	e0823003 	add	r3, r2, r3
c000ea04:	e283201a 	add	r2, r3, #26
c000ea08:	e3a03004 	mov	r3, #4
c000ea0c:	e1a02102 	lsl	r2, r2, #2
c000ea10:	e0812002 	add	r2, r1, r2
c000ea14:	e0823003 	add	r3, r2, r3
c000ea18:	e5933000 	ldr	r3, [r3]
c000ea1c:	e51b2018 	ldr	r2, [fp, #-24]
c000ea20:	e5832008 	str	r2, [r3, #8]
c000ea24:	e51b2024 	ldr	r2, [fp, #-36]	; 0x24
c000ea28:	e51b3028 	ldr	r3, [fp, #-40]	; 0x28
c000ea2c:	e51b1010 	ldr	r1, [fp, #-16]
c000ea30:	e1a02282 	lsl	r2, r2, #5
c000ea34:	e0823003 	add	r3, r2, r3
c000ea38:	e283201a 	add	r2, r3, #26
c000ea3c:	e3a03004 	mov	r3, #4
c000ea40:	e1a02102 	lsl	r2, r2, #2
c000ea44:	e0812002 	add	r2, r1, r2
c000ea48:	e0823003 	add	r3, r2, r3
c000ea4c:	e51b2018 	ldr	r2, [fp, #-24]
c000ea50:	e5832000 	str	r2, [r3]
c000ea54:	e51b2028 	ldr	r2, [fp, #-40]	; 0x28
c000ea58:	e51b3024 	ldr	r3, [fp, #-36]	; 0x24
c000ea5c:	e2833002 	add	r3, r3, #2
c000ea60:	e1a03103 	lsl	r3, r3, #2
c000ea64:	e51b1010 	ldr	r1, [fp, #-16]
c000ea68:	e0813003 	add	r3, r1, r3
c000ea6c:	e2833004 	add	r3, r3, #4
c000ea70:	e1a00002 	mov	r0, r2
c000ea74:	e1a01003 	mov	r1, r3
c000ea78:	ebfff8f1 	bl	c000ce44 <set_bit>
c000ea7c:	e51b2024 	ldr	r2, [fp, #-36]	; 0x24
c000ea80:	e51b3010 	ldr	r3, [fp, #-16]
c000ea84:	e2833008 	add	r3, r3, #8
c000ea88:	e1a00002 	mov	r0, r2
c000ea8c:	e1a01003 	mov	r1, r3
c000ea90:	ebfff8eb 	bl	c000ce44 <set_bit>
c000ea94:	e51b3014 	ldr	r3, [fp, #-20]
c000ea98:	e5933004 	ldr	r3, [r3, #4]
c000ea9c:	e2032002 	and	r2, r3, #2
c000eaa0:	e51b3034 	ldr	r3, [fp, #-52]	; 0x34
c000eaa4:	e1822003 	orr	r2, r2, r3
c000eaa8:	e51b3014 	ldr	r3, [fp, #-20]
c000eaac:	e5832004 	str	r2, [r3, #4]
c000eab0:	e51b3014 	ldr	r3, [fp, #-20]
c000eab4:	e2833008 	add	r3, r3, #8
c000eab8:	ea000017 	b	c000eb1c <realloc_ex+0x8d4>
c000eabc:	e51b0034 	ldr	r0, [fp, #-52]	; 0x34
c000eac0:	e51b1038 	ldr	r1, [fp, #-56]	; 0x38
c000eac4:	ebfffb86 	bl	c000d8e4 <malloc_ex>
c000eac8:	e50b001c 	str	r0, [fp, #-28]
c000eacc:	e51b301c 	ldr	r3, [fp, #-28]
c000ead0:	e3530000 	cmp	r3, #0
c000ead4:	1a000001 	bne	c000eae0 <realloc_ex+0x898>
c000ead8:	e3a03000 	mov	r3, #0
c000eadc:	ea00000e 	b	c000eb1c <realloc_ex+0x8d4>
c000eae0:	e51b3014 	ldr	r3, [fp, #-20]
c000eae4:	e5933004 	ldr	r3, [r3, #4]
c000eae8:	e3c32003 	bic	r2, r3, #3
c000eaec:	e51b3034 	ldr	r3, [fp, #-52]	; 0x34
c000eaf0:	e1520003 	cmp	r2, r3
c000eaf4:	31a03002 	movcc	r3, r2
c000eaf8:	e50b3020 	str	r3, [fp, #-32]
c000eafc:	e51b001c 	ldr	r0, [fp, #-28]
c000eb00:	e51b1030 	ldr	r1, [fp, #-48]	; 0x30
c000eb04:	e51b2020 	ldr	r2, [fp, #-32]
c000eb08:	ebfff44b 	bl	c000bc3c <memcpy>
c000eb0c:	e51b0030 	ldr	r0, [fp, #-48]	; 0x30
c000eb10:	e51b1038 	ldr	r1, [fp, #-56]	; 0x38
c000eb14:	ebfffc60 	bl	c000dc9c <free_ex>
c000eb18:	e51b301c 	ldr	r3, [fp, #-28]
c000eb1c:	e1a00003 	mov	r0, r3
c000eb20:	e24bd004 	sub	sp, fp, #4
c000eb24:	e8bd4800 	pop	{fp, lr}
c000eb28:	e12fff1e 	bx	lr

c000eb2c <calloc_ex>:
c000eb2c:	e92d4800 	push	{fp, lr}
c000eb30:	e28db004 	add	fp, sp, #4
c000eb34:	e24dd018 	sub	sp, sp, #24
c000eb38:	e50b0010 	str	r0, [fp, #-16]
c000eb3c:	e50b1014 	str	r1, [fp, #-20]
c000eb40:	e50b2018 	str	r2, [fp, #-24]
c000eb44:	e51b3010 	ldr	r3, [fp, #-16]
c000eb48:	e3530000 	cmp	r3, #0
c000eb4c:	0a000002 	beq	c000eb5c <calloc_ex+0x30>
c000eb50:	e51b3014 	ldr	r3, [fp, #-20]
c000eb54:	e3530000 	cmp	r3, #0
c000eb58:	1a000001 	bne	c000eb64 <calloc_ex+0x38>
c000eb5c:	e3a03000 	mov	r3, #0
c000eb60:	ea000013 	b	c000ebb4 <calloc_ex+0x88>
c000eb64:	e51b3010 	ldr	r3, [fp, #-16]
c000eb68:	e51b2014 	ldr	r2, [fp, #-20]
c000eb6c:	e0030392 	mul	r3, r2, r3
c000eb70:	e1a00003 	mov	r0, r3
c000eb74:	e51b1018 	ldr	r1, [fp, #-24]
c000eb78:	ebfffb59 	bl	c000d8e4 <malloc_ex>
c000eb7c:	e50b0008 	str	r0, [fp, #-8]
c000eb80:	e51b3008 	ldr	r3, [fp, #-8]
c000eb84:	e3530000 	cmp	r3, #0
c000eb88:	1a000001 	bne	c000eb94 <calloc_ex+0x68>
c000eb8c:	e3a03000 	mov	r3, #0
c000eb90:	ea000007 	b	c000ebb4 <calloc_ex+0x88>
c000eb94:	e51b3010 	ldr	r3, [fp, #-16]
c000eb98:	e51b2014 	ldr	r2, [fp, #-20]
c000eb9c:	e0030392 	mul	r3, r2, r3
c000eba0:	e51b0008 	ldr	r0, [fp, #-8]
c000eba4:	e3a01000 	mov	r1, #0
c000eba8:	e1a02003 	mov	r2, r3
c000ebac:	ebfff81d 	bl	c000cc28 <memset>
c000ebb0:	e51b3008 	ldr	r3, [fp, #-8]
c000ebb4:	e1a00003 	mov	r0, r3
c000ebb8:	e24bd004 	sub	sp, fp, #4
c000ebbc:	e8bd4800 	pop	{fp, lr}
c000ebc0:	e12fff1e 	bx	lr

Disassembly of section .rodata:

c000ebc4 <table-0x324>:
c000ebc4:	696c6143 	stmdbvs	ip!, {r0, r1, r6, r8, sp, lr}^
c000ebc8:	74617262 	strbtvc	r7, [r1], #-610	; 0x262
c000ebcc:	20676e69 	rsbcs	r6, r7, r9, ror #28
c000ebd0:	616c6564 	cmnvs	ip, r4, ror #10
c000ebd4:	2e2e2e79 	mcrcs	14, 1, r2, cr14, cr9, {3}
c000ebd8:	00000020 	andeq	r0, r0, r0, lsr #32
c000ebdc:	6c207525 	cfstr32vs	mvfx7, [r0], #-148	; 0xffffff6c
c000ebe0:	73706f6f 	cmnvc	r0, #444	; 0x1bc
c000ebe4:	72657020 	rsbvc	r7, r5, #32
c000ebe8:	63657320 	cmnvs	r5, #32, 6	; 0x80000000
c000ebec:	20646e6f 	rsbcs	r6, r4, pc, ror #28
c000ebf0:	756c2528 	strbvc	r2, [ip, #-1320]!	; 0x528
c000ebf4:	3230252e 	eorscc	r2, r0, #192937984	; 0xb800000
c000ebf8:	4220756c 	eormi	r7, r0, #108, 10	; 0x1b000000
c000ebfc:	4d6f676f 	stclmi	7, cr6, [pc, #-444]!	; c000ea48 <realloc_ex+0x800>
c000ec00:	29535049 	ldmdbcs	r3, {r0, r3, r6, ip, lr}^
c000ec04:	00000a0d 	andeq	r0, r0, sp, lsl #20
c000ec08:	30307830 	eorscc	r7, r0, r0, lsr r8
c000ec0c:	30303030 	eorscc	r3, r0, r0, lsr r0
c000ec10:	0a0d3030 	beq	c035acd8 <_end+0x34b8c4>
c000ec14:	00000000 	andeq	r0, r0, r0
c000ec18:	303a4650 	eorscc	r4, sl, r0, asr r6
c000ec1c:	38302578 	ldmdacc	r0!, {r3, r4, r5, r6, r8, sl, sp}
c000ec20:	78302878 	ldmdavc	r0!, {r3, r4, r5, r6, fp, sp}
c000ec24:	78313025 	ldmdavc	r1!, {r0, r2, r5, ip, sp}
c000ec28:	00000029 	andeq	r0, r0, r9, lsr #32
c000ec2c:	4c493e2d 	mcrrmi	14, 2, r3, r9, cr13
c000ec30:	4147454c 	cmpmi	r7, ip, asr #10
c000ec34:	454d204c 	strbmi	r2, [sp, #-76]	; 0x4c
c000ec38:	59524f4d 	ldmdbpl	r2, {r0, r2, r3, r6, r8, r9, sl, fp, lr}^
c000ec3c:	43434120 	movtmi	r4, #12576	; 0x3120
c000ec40:	0d535345 	ldcleq	3, cr5, [r3, #-276]	; 0xfffffeec
c000ec44:	0000000a 	andeq	r0, r0, sl
c000ec48:	554f3e2d 	strbpl	r3, [pc, #-3629]	; c000de23 <free_ex+0x187>
c000ec4c:	464f2054 			; <UNDEFINED> instruction: 0x464f2054
c000ec50:	4d415220 	sfmmi	f5, 2, [r1, #-128]	; 0xffffff80
c000ec54:	00000a0d 	andeq	r0, r0, sp, lsl #20
c000ec58:	52503e2d 	subspl	r3, r0, #720	; 0x2d0
c000ec5c:	4345544f 	movtmi	r5, #21583	; 0x544f
c000ec60:	4e4f4954 	mcrmi	9, 2, r4, cr15, cr4, {2}
c000ec64:	4f495620 	svcmi	0x00495620
c000ec68:	4954414c 	ldmdbmi	r4, {r2, r3, r6, r8, lr}^
c000ec6c:	0a0d4e4f 	beq	c03625b0 <_end+0x35319c>
c000ec70:	00000000 	andeq	r0, r0, r0
c000ec74:	636c6557 	cmnvs	ip, #364904448	; 0x15c00000
c000ec78:	20656d6f 	rsbcs	r6, r5, pc, ror #26
c000ec7c:	45206f74 	strmi	r6, [r0, #-3956]!	; 0xf74
c000ec80:	0d534f50 	ldcleq	15, cr4, [r3, #-320]	; 0xfffffec0
c000ec84:	0000000a 	andeq	r0, r0, sl
c000ec88:	79706f43 	ldmdbvc	r0!, {r0, r1, r6, r8, r9, sl, fp, sp, lr}^
c000ec8c:	68676972 	stmdavs	r7!, {r1, r4, r5, r6, r8, fp, sp, lr}^
c000ec90:	43282074 	teqmi	r8, #116	; 0x74
c000ec94:	30322029 	eorscc	r2, r2, r9, lsr #32
c000ec98:	322d3530 	eorcc	r3, sp, #48, 10	; 0xc000000
c000ec9c:	20353130 	eorscs	r3, r5, r0, lsr r1
c000eca0:	676e694d 	strbvs	r6, [lr, -sp, asr #18]!
c000eca4:	6e61694a 	cdpvs	9, 6, cr6, cr1, cr10, {2}
c000eca8:	6e6f4820 	cdpvs	8, 6, cr4, cr15, cr0, {1}
c000ecac:	6f683c67 	svcvs	0x00683c67
c000ecb0:	696d676e 	stmdbvs	sp!, {r1, r2, r3, r5, r6, r8, r9, sl, sp, lr}^
c000ecb4:	696a676e 	stmdbvs	sl!, {r1, r2, r3, r5, r6, r8, r9, sl, sp, lr}^
c000ecb8:	67406e61 	strbvs	r6, [r0, -r1, ror #28]
c000ecbc:	6c69616d 	stfvse	f6, [r9], #-436	; 0xfffffe4c
c000ecc0:	6d6f632e 	stclvs	3, cr6, [pc, #-184]!	; c000ec10 <calloc_ex+0xe4>
c000ecc4:	000a0d3e 	andeq	r0, sl, lr, lsr sp
c000ecc8:	206c6c41 	rsbcs	r6, ip, r1, asr #24
c000eccc:	68676972 	stmdavs	r7!, {r1, r4, r5, r6, r8, fp, sp, lr}^
c000ecd0:	72207374 	eorvc	r7, r0, #116, 6	; 0xd0000001
c000ecd4:	72657365 	rsbvc	r7, r5, #-1811939327	; 0x94000001
c000ecd8:	2e646576 	mcrcs	5, 3, r6, cr4, cr6, {3}
c000ecdc:	0a0d0a0d 	beq	c0351518 <_end+0x342104>
c000ece0:	00000000 	andeq	r0, r0, r0
c000ece4:	3a4d4152 	bcc	c135f234 <_end+0x134fe20>
c000ece8:	25783020 	ldrbcs	r3, [r8, #-32]!
c000ecec:	20783830 	rsbscs	r3, r8, r0, lsr r8
c000ecf0:	7830202d 	ldmdavc	r0!, {r0, r2, r3, r5, sp}
c000ecf4:	78383025 	ldmdavc	r8!, {r0, r2, r5, ip, sp}
c000ecf8:	64252820 	strtvs	r2, [r5], #-2080	; 0x820
c000ecfc:	61726620 	cmnvs	r2, r0, lsr #12
c000ed00:	2973656d 	ldmdbcs	r3!, {r0, r2, r3, r5, r6, r8, sl, sp, lr}^
c000ed04:	00000a0d 	andeq	r0, r0, sp, lsl #20
c000ed08:	30303030 	eorscc	r3, r0, r0, lsr r0
c000ed0c:	30303030 	eorscc	r3, r0, r0, lsr r0
c000ed10:	0a0d3030 	beq	c035add8 <_end+0x34b9c4>
c000ed14:	00000000 	andeq	r0, r0, r0
c000ed18:	66632020 	strbtvs	r2, [r3], -r0, lsr #32
c000ed1c:	7370735f 	cmnvc	r0, #2080374785	; 0x7c000001
c000ed20:	00003d72 	andeq	r3, r0, r2, ror sp
c000ed24:	20202020 	eorcs	r2, r0, r0, lsr #32
c000ed28:	725f6663 	subsvc	r6, pc, #103809024	; 0x6300000
c000ed2c:	00003d30 	andeq	r3, r0, r0, lsr sp
c000ed30:	20202020 	eorcs	r2, r0, r0, lsr #32
c000ed34:	725f6663 	subsvc	r6, pc, #103809024	; 0x6300000
c000ed38:	00003d31 	andeq	r3, r0, r1, lsr sp
c000ed3c:	20202020 	eorcs	r2, r0, r0, lsr #32
c000ed40:	725f6663 	subsvc	r6, pc, #103809024	; 0x6300000
c000ed44:	00003d32 	andeq	r3, r0, r2, lsr sp
c000ed48:	20202020 	eorcs	r2, r0, r0, lsr #32
c000ed4c:	725f6663 	subsvc	r6, pc, #103809024	; 0x6300000
c000ed50:	00003d33 	andeq	r3, r0, r3, lsr sp
c000ed54:	20202020 	eorcs	r2, r0, r0, lsr #32
c000ed58:	345f6663 	ldrbcc	r6, [pc], #-1635	; c000ed60 <calloc_ex+0x234>
c000ed5c:	0000003d 	andeq	r0, r0, sp, lsr r0
c000ed60:	20202020 	eorcs	r2, r0, r0, lsr #32
c000ed64:	725f6663 	subsvc	r6, pc, #103809024	; 0x6300000
c000ed68:	00003d35 	andeq	r3, r0, r5, lsr sp
c000ed6c:	20202020 	eorcs	r2, r0, r0, lsr #32
c000ed70:	725f6663 	subsvc	r6, pc, #103809024	; 0x6300000
c000ed74:	00003d36 	andeq	r3, r0, r6, lsr sp
c000ed78:	20202020 	eorcs	r2, r0, r0, lsr #32
c000ed7c:	725f6663 	subsvc	r6, pc, #103809024	; 0x6300000
c000ed80:	00003d37 	andeq	r3, r0, r7, lsr sp
c000ed84:	20202020 	eorcs	r2, r0, r0, lsr #32
c000ed88:	725f6663 	subsvc	r6, pc, #103809024	; 0x6300000
c000ed8c:	00003d38 	andeq	r3, r0, r8, lsr sp
c000ed90:	20202020 	eorcs	r2, r0, r0, lsr #32
c000ed94:	725f6663 	subsvc	r6, pc, #103809024	; 0x6300000
c000ed98:	00003d39 	andeq	r3, r0, r9, lsr sp
c000ed9c:	63202020 	teqvs	r0, #32
c000eda0:	31725f66 	cmncc	r2, r6, ror #30
c000eda4:	00003d30 	andeq	r3, r0, r0, lsr sp
c000eda8:	63202020 	teqvs	r0, #32
c000edac:	31725f66 	cmncc	r2, r6, ror #30
c000edb0:	00003d31 	andeq	r3, r0, r1, lsr sp
c000edb4:	63202020 	teqvs	r0, #32
c000edb8:	31725f66 	cmncc	r2, r6, ror #30
c000edbc:	00003d32 	andeq	r3, r0, r2, lsr sp
c000edc0:	755f6663 	ldrbvc	r6, [pc, #-1635]	; c000e765 <realloc_ex+0x51d>
c000edc4:	735f7273 	cmpvc	pc, #805306375	; 0x30000007
c000edc8:	00003d70 	andeq	r3, r0, r0, ror sp
c000edcc:	755f6663 	ldrbvc	r6, [pc, #-1635]	; c000e771 <realloc_ex+0x529>
c000edd0:	6c5f7273 	lfmvs	f7, 2, [pc], {115}	; 0x73
c000edd4:	00003d72 	andeq	r3, r0, r2, ror sp
c000edd8:	735f6663 	cmpvc	pc, #103809024	; 0x6300000
c000eddc:	735f6376 	cmpvc	pc, #-671088639	; 0xd8000001
c000ede0:	00003d70 	andeq	r3, r0, r0, ror sp
c000ede4:	735f6663 	cmpvc	pc, #103809024	; 0x6300000
c000ede8:	6c5f6376 	mrrcvs	3, 7, r6, pc, cr6	; <UNPREDICTABLE>
c000edec:	00003d72 	andeq	r3, r0, r2, ror sp
c000edf0:	20202020 	eorcs	r2, r0, r0, lsr #32
c000edf4:	705f6663 	subsvc	r6, pc, r3, ror #12
c000edf8:	00003d63 	andeq	r3, r0, r3, ror #26
c000edfc:	65646e75 	strbvs	r6, [r4, #-3701]!	; 0xe75
c000ee00:	656e6966 	strbvs	r6, [lr, #-2406]!	; 0x966
c000ee04:	746e6920 	strbtvc	r6, [lr], #-2336	; 0x920
c000ee08:	75727265 	ldrbvc	r7, [r2, #-613]!	; 0x265
c000ee0c:	0d737470 	cfldrdeq	mvd7, [r3, #-448]!	; 0xfffffe40
c000ee10:	0000000a 	andeq	r0, r0, sl
c000ee14:	20697773 	rsbcs	r7, r9, r3, ror r7
c000ee18:	65746e69 	ldrbvs	r6, [r4, #-3689]!	; 0xe69
c000ee1c:	70757272 	rsbsvc	r7, r5, r2, ror r2
c000ee20:	0a0d7374 	beq	c036bbf8 <_end+0x35c7e4>
c000ee24:	00000000 	andeq	r0, r0, r0
c000ee28:	66657270 			; <UNDEFINED> instruction: 0x66657270
c000ee2c:	68637465 	stmdavs	r3!, {r0, r2, r5, r6, sl, ip, sp, lr}^
c000ee30:	746e6920 	strbtvc	r6, [lr], #-2336	; 0x920
c000ee34:	75727265 	ldrbvc	r7, [r2, #-613]!	; 0x265
c000ee38:	0d737470 	cfldrdeq	mvd7, [r3, #-448]!	; 0xfffffe40
c000ee3c:	0000000a 	andeq	r0, r0, sl
c000ee40:	30303030 	eorscc	r3, r0, r0, lsr r0
c000ee44:	30303030 	eorscc	r3, r0, r0, lsr r0
c000ee48:	0a0d3030 	beq	c035af10 <_end+0x34bafc>
c000ee4c:	00000000 	andeq	r0, r0, r0
c000ee50:	65676170 	strbvs	r6, [r7, #-368]!	; 0x170
c000ee54:	75616620 	strbvc	r6, [r1, #-1568]!	; 0x620
c000ee58:	6120746c 	teqvs	r0, ip, ror #8
c000ee5c:	65726464 	ldrbvs	r6, [r2, #-1124]!	; 0x464
c000ee60:	003a7373 	eorseq	r7, sl, r3, ror r3
c000ee64:	65676170 	strbvs	r6, [r7, #-368]!	; 0x170
c000ee68:	75616620 	strbvc	r6, [r1, #-1568]!	; 0x620
c000ee6c:	6320746c 	teqvs	r0, #108, 8	; 0x6c000000
c000ee70:	3a65646f 	bcc	c1968034 <_end+0x1958c20>
c000ee74:	00000000 	andeq	r0, r0, r0
c000ee78:	61746164 	cmnvs	r4, r4, ror #2
c000ee7c:	6f626120 	svcvs	0x00626120
c000ee80:	69207472 	stmdbvs	r0!, {r1, r4, r5, r6, sl, ip, sp, lr}
c000ee84:	7265746e 	rsbvc	r7, r5, #1845493760	; 0x6e000000
c000ee88:	74707572 	ldrbtvc	r7, [r0], #-1394	; 0x572
c000ee8c:	000a0d73 	andeq	r0, sl, r3, ror sp
c000ee90:	65736572 	ldrbvs	r6, [r3, #-1394]!	; 0x572
c000ee94:	64657672 	strbtvs	r7, [r5], #-1650	; 0x672
c000ee98:	746e6920 	strbtvc	r6, [lr], #-2336	; 0x920
c000ee9c:	75727265 	ldrbvc	r7, [r2, #-613]!	; 0x265
c000eea0:	0d737470 	cfldrdeq	mvd7, [r3, #-448]!	; 0xfffffe40
c000eea4:	0000000a 	andeq	r0, r0, sl
c000eea8:	656d6974 	strbvs	r6, [sp, #-2420]!	; 0x974
c000eeac:	6e692072 	mcrvs	0, 3, r2, cr9, cr2, {3}
c000eeb0:	72726574 	rsbsvc	r6, r2, #116, 10	; 0x1d000000
c000eeb4:	73747075 	cmnvc	r4, #117	; 0x75
c000eeb8:	00000a0d 	andeq	r0, r0, sp, lsl #20
c000eebc:	656d6974 	strbvs	r6, [sp, #-2420]!	; 0x974
c000eec0:	6e692072 	mcrvs	0, 3, r2, cr9, cr2, {3}
c000eec4:	72726574 	rsbsvc	r6, r2, #116, 10	; 0x1d000000
c000eec8:	73747075 	cmnvc	r4, #117	; 0x75
c000eecc:	646e6520 	strbtvs	r6, [lr], #-1312	; 0x520
c000eed0:	000a0d21 	andeq	r0, sl, r1, lsr #26
c000eed4:	20716966 	rsbscs	r6, r1, r6, ror #18
c000eed8:	65746e69 	ldrbvs	r6, [r4, #-3689]!	; 0xe69
c000eedc:	70757272 	rsbsvc	r7, r5, r2, ror r2
c000eee0:	0a0d7374 	beq	c036bcb8 <_end+0x35c8a4>
c000eee4:	00000000 	andeq	r0, r0, r0

c000eee8 <table>:
c000eee8:	ffffffff 			; <UNDEFINED> instruction: 0xffffffff
c000eeec:	00000000 	andeq	r0, r0, r0
c000eef0:	00000001 	andeq	r0, r0, r1
c000eef4:	00000001 	andeq	r0, r0, r1
c000eef8:	00000002 	andeq	r0, r0, r2
c000eefc:	00000002 	andeq	r0, r0, r2
c000ef00:	00000002 	andeq	r0, r0, r2
c000ef04:	00000002 	andeq	r0, r0, r2
c000ef08:	00000003 	andeq	r0, r0, r3
c000ef0c:	00000003 	andeq	r0, r0, r3
c000ef10:	00000003 	andeq	r0, r0, r3
c000ef14:	00000003 	andeq	r0, r0, r3
c000ef18:	00000003 	andeq	r0, r0, r3
c000ef1c:	00000003 	andeq	r0, r0, r3
c000ef20:	00000003 	andeq	r0, r0, r3
c000ef24:	00000003 	andeq	r0, r0, r3
c000ef28:	00000004 	andeq	r0, r0, r4
c000ef2c:	00000004 	andeq	r0, r0, r4
c000ef30:	00000004 	andeq	r0, r0, r4
c000ef34:	00000004 	andeq	r0, r0, r4
c000ef38:	00000004 	andeq	r0, r0, r4
c000ef3c:	00000004 	andeq	r0, r0, r4
c000ef40:	00000004 	andeq	r0, r0, r4
c000ef44:	00000004 	andeq	r0, r0, r4
c000ef48:	00000004 	andeq	r0, r0, r4
c000ef4c:	00000004 	andeq	r0, r0, r4
c000ef50:	00000004 	andeq	r0, r0, r4
c000ef54:	00000004 	andeq	r0, r0, r4
c000ef58:	00000004 	andeq	r0, r0, r4
c000ef5c:	00000004 	andeq	r0, r0, r4
c000ef60:	00000004 	andeq	r0, r0, r4
c000ef64:	00000004 	andeq	r0, r0, r4
c000ef68:	00000005 	andeq	r0, r0, r5
c000ef6c:	00000005 	andeq	r0, r0, r5
c000ef70:	00000005 	andeq	r0, r0, r5
c000ef74:	00000005 	andeq	r0, r0, r5
c000ef78:	00000005 	andeq	r0, r0, r5
c000ef7c:	00000005 	andeq	r0, r0, r5
c000ef80:	00000005 	andeq	r0, r0, r5
c000ef84:	00000005 	andeq	r0, r0, r5
c000ef88:	00000005 	andeq	r0, r0, r5
c000ef8c:	00000005 	andeq	r0, r0, r5
c000ef90:	00000005 	andeq	r0, r0, r5
c000ef94:	00000005 	andeq	r0, r0, r5
c000ef98:	00000005 	andeq	r0, r0, r5
c000ef9c:	00000005 	andeq	r0, r0, r5
c000efa0:	00000005 	andeq	r0, r0, r5
c000efa4:	00000005 	andeq	r0, r0, r5
c000efa8:	00000005 	andeq	r0, r0, r5
c000efac:	00000005 	andeq	r0, r0, r5
c000efb0:	00000005 	andeq	r0, r0, r5
c000efb4:	00000005 	andeq	r0, r0, r5
c000efb8:	00000005 	andeq	r0, r0, r5
c000efbc:	00000005 	andeq	r0, r0, r5
c000efc0:	00000005 	andeq	r0, r0, r5
c000efc4:	00000005 	andeq	r0, r0, r5
c000efc8:	00000005 	andeq	r0, r0, r5
c000efcc:	00000005 	andeq	r0, r0, r5
c000efd0:	00000005 	andeq	r0, r0, r5
c000efd4:	00000005 	andeq	r0, r0, r5
c000efd8:	00000005 	andeq	r0, r0, r5
c000efdc:	00000005 	andeq	r0, r0, r5
c000efe0:	00000005 	andeq	r0, r0, r5
c000efe4:	00000005 	andeq	r0, r0, r5
c000efe8:	00000006 	andeq	r0, r0, r6
c000efec:	00000006 	andeq	r0, r0, r6
c000eff0:	00000006 	andeq	r0, r0, r6
c000eff4:	00000006 	andeq	r0, r0, r6
c000eff8:	00000006 	andeq	r0, r0, r6
c000effc:	00000006 	andeq	r0, r0, r6
c000f000:	00000006 	andeq	r0, r0, r6
c000f004:	00000006 	andeq	r0, r0, r6
c000f008:	00000006 	andeq	r0, r0, r6
c000f00c:	00000006 	andeq	r0, r0, r6
c000f010:	00000006 	andeq	r0, r0, r6
c000f014:	00000006 	andeq	r0, r0, r6
c000f018:	00000006 	andeq	r0, r0, r6
c000f01c:	00000006 	andeq	r0, r0, r6
c000f020:	00000006 	andeq	r0, r0, r6
c000f024:	00000006 	andeq	r0, r0, r6
c000f028:	00000006 	andeq	r0, r0, r6
c000f02c:	00000006 	andeq	r0, r0, r6
c000f030:	00000006 	andeq	r0, r0, r6
c000f034:	00000006 	andeq	r0, r0, r6
c000f038:	00000006 	andeq	r0, r0, r6
c000f03c:	00000006 	andeq	r0, r0, r6
c000f040:	00000006 	andeq	r0, r0, r6
c000f044:	00000006 	andeq	r0, r0, r6
c000f048:	00000006 	andeq	r0, r0, r6
c000f04c:	00000006 	andeq	r0, r0, r6
c000f050:	00000006 	andeq	r0, r0, r6
c000f054:	00000006 	andeq	r0, r0, r6
c000f058:	00000006 	andeq	r0, r0, r6
c000f05c:	00000006 	andeq	r0, r0, r6
c000f060:	00000006 	andeq	r0, r0, r6
c000f064:	00000006 	andeq	r0, r0, r6
c000f068:	00000006 	andeq	r0, r0, r6
c000f06c:	00000006 	andeq	r0, r0, r6
c000f070:	00000006 	andeq	r0, r0, r6
c000f074:	00000006 	andeq	r0, r0, r6
c000f078:	00000006 	andeq	r0, r0, r6
c000f07c:	00000006 	andeq	r0, r0, r6
c000f080:	00000006 	andeq	r0, r0, r6
c000f084:	00000006 	andeq	r0, r0, r6
c000f088:	00000006 	andeq	r0, r0, r6
c000f08c:	00000006 	andeq	r0, r0, r6
c000f090:	00000006 	andeq	r0, r0, r6
c000f094:	00000006 	andeq	r0, r0, r6
c000f098:	00000006 	andeq	r0, r0, r6
c000f09c:	00000006 	andeq	r0, r0, r6
c000f0a0:	00000006 	andeq	r0, r0, r6
c000f0a4:	00000006 	andeq	r0, r0, r6
c000f0a8:	00000006 	andeq	r0, r0, r6
c000f0ac:	00000006 	andeq	r0, r0, r6
c000f0b0:	00000006 	andeq	r0, r0, r6
c000f0b4:	00000006 	andeq	r0, r0, r6
c000f0b8:	00000006 	andeq	r0, r0, r6
c000f0bc:	00000006 	andeq	r0, r0, r6
c000f0c0:	00000006 	andeq	r0, r0, r6
c000f0c4:	00000006 	andeq	r0, r0, r6
c000f0c8:	00000006 	andeq	r0, r0, r6
c000f0cc:	00000006 	andeq	r0, r0, r6
c000f0d0:	00000006 	andeq	r0, r0, r6
c000f0d4:	00000006 	andeq	r0, r0, r6
c000f0d8:	00000006 	andeq	r0, r0, r6
c000f0dc:	00000006 	andeq	r0, r0, r6
c000f0e0:	00000006 	andeq	r0, r0, r6
c000f0e4:	00000006 	andeq	r0, r0, r6
c000f0e8:	00000007 	andeq	r0, r0, r7
c000f0ec:	00000007 	andeq	r0, r0, r7
c000f0f0:	00000007 	andeq	r0, r0, r7
c000f0f4:	00000007 	andeq	r0, r0, r7
c000f0f8:	00000007 	andeq	r0, r0, r7
c000f0fc:	00000007 	andeq	r0, r0, r7
c000f100:	00000007 	andeq	r0, r0, r7
c000f104:	00000007 	andeq	r0, r0, r7
c000f108:	00000007 	andeq	r0, r0, r7
c000f10c:	00000007 	andeq	r0, r0, r7
c000f110:	00000007 	andeq	r0, r0, r7
c000f114:	00000007 	andeq	r0, r0, r7
c000f118:	00000007 	andeq	r0, r0, r7
c000f11c:	00000007 	andeq	r0, r0, r7
c000f120:	00000007 	andeq	r0, r0, r7
c000f124:	00000007 	andeq	r0, r0, r7
c000f128:	00000007 	andeq	r0, r0, r7
c000f12c:	00000007 	andeq	r0, r0, r7
c000f130:	00000007 	andeq	r0, r0, r7
c000f134:	00000007 	andeq	r0, r0, r7
c000f138:	00000007 	andeq	r0, r0, r7
c000f13c:	00000007 	andeq	r0, r0, r7
c000f140:	00000007 	andeq	r0, r0, r7
c000f144:	00000007 	andeq	r0, r0, r7
c000f148:	00000007 	andeq	r0, r0, r7
c000f14c:	00000007 	andeq	r0, r0, r7
c000f150:	00000007 	andeq	r0, r0, r7
c000f154:	00000007 	andeq	r0, r0, r7
c000f158:	00000007 	andeq	r0, r0, r7
c000f15c:	00000007 	andeq	r0, r0, r7
c000f160:	00000007 	andeq	r0, r0, r7
c000f164:	00000007 	andeq	r0, r0, r7
c000f168:	00000007 	andeq	r0, r0, r7
c000f16c:	00000007 	andeq	r0, r0, r7
c000f170:	00000007 	andeq	r0, r0, r7
c000f174:	00000007 	andeq	r0, r0, r7
c000f178:	00000007 	andeq	r0, r0, r7
c000f17c:	00000007 	andeq	r0, r0, r7
c000f180:	00000007 	andeq	r0, r0, r7
c000f184:	00000007 	andeq	r0, r0, r7
c000f188:	00000007 	andeq	r0, r0, r7
c000f18c:	00000007 	andeq	r0, r0, r7
c000f190:	00000007 	andeq	r0, r0, r7
c000f194:	00000007 	andeq	r0, r0, r7
c000f198:	00000007 	andeq	r0, r0, r7
c000f19c:	00000007 	andeq	r0, r0, r7
c000f1a0:	00000007 	andeq	r0, r0, r7
c000f1a4:	00000007 	andeq	r0, r0, r7
c000f1a8:	00000007 	andeq	r0, r0, r7
c000f1ac:	00000007 	andeq	r0, r0, r7
c000f1b0:	00000007 	andeq	r0, r0, r7
c000f1b4:	00000007 	andeq	r0, r0, r7
c000f1b8:	00000007 	andeq	r0, r0, r7
c000f1bc:	00000007 	andeq	r0, r0, r7
c000f1c0:	00000007 	andeq	r0, r0, r7
c000f1c4:	00000007 	andeq	r0, r0, r7
c000f1c8:	00000007 	andeq	r0, r0, r7
c000f1cc:	00000007 	andeq	r0, r0, r7
c000f1d0:	00000007 	andeq	r0, r0, r7
c000f1d4:	00000007 	andeq	r0, r0, r7
c000f1d8:	00000007 	andeq	r0, r0, r7
c000f1dc:	00000007 	andeq	r0, r0, r7
c000f1e0:	00000007 	andeq	r0, r0, r7
c000f1e4:	00000007 	andeq	r0, r0, r7
c000f1e8:	00000007 	andeq	r0, r0, r7
c000f1ec:	00000007 	andeq	r0, r0, r7
c000f1f0:	00000007 	andeq	r0, r0, r7
c000f1f4:	00000007 	andeq	r0, r0, r7
c000f1f8:	00000007 	andeq	r0, r0, r7
c000f1fc:	00000007 	andeq	r0, r0, r7
c000f200:	00000007 	andeq	r0, r0, r7
c000f204:	00000007 	andeq	r0, r0, r7
c000f208:	00000007 	andeq	r0, r0, r7
c000f20c:	00000007 	andeq	r0, r0, r7
c000f210:	00000007 	andeq	r0, r0, r7
c000f214:	00000007 	andeq	r0, r0, r7
c000f218:	00000007 	andeq	r0, r0, r7
c000f21c:	00000007 	andeq	r0, r0, r7
c000f220:	00000007 	andeq	r0, r0, r7
c000f224:	00000007 	andeq	r0, r0, r7
c000f228:	00000007 	andeq	r0, r0, r7
c000f22c:	00000007 	andeq	r0, r0, r7
c000f230:	00000007 	andeq	r0, r0, r7
c000f234:	00000007 	andeq	r0, r0, r7
c000f238:	00000007 	andeq	r0, r0, r7
c000f23c:	00000007 	andeq	r0, r0, r7
c000f240:	00000007 	andeq	r0, r0, r7
c000f244:	00000007 	andeq	r0, r0, r7
c000f248:	00000007 	andeq	r0, r0, r7
c000f24c:	00000007 	andeq	r0, r0, r7
c000f250:	00000007 	andeq	r0, r0, r7
c000f254:	00000007 	andeq	r0, r0, r7
c000f258:	00000007 	andeq	r0, r0, r7
c000f25c:	00000007 	andeq	r0, r0, r7
c000f260:	00000007 	andeq	r0, r0, r7
c000f264:	00000007 	andeq	r0, r0, r7
c000f268:	00000007 	andeq	r0, r0, r7
c000f26c:	00000007 	andeq	r0, r0, r7
c000f270:	00000007 	andeq	r0, r0, r7
c000f274:	00000007 	andeq	r0, r0, r7
c000f278:	00000007 	andeq	r0, r0, r7
c000f27c:	00000007 	andeq	r0, r0, r7
c000f280:	00000007 	andeq	r0, r0, r7
c000f284:	00000007 	andeq	r0, r0, r7
c000f288:	00000007 	andeq	r0, r0, r7
c000f28c:	00000007 	andeq	r0, r0, r7
c000f290:	00000007 	andeq	r0, r0, r7
c000f294:	00000007 	andeq	r0, r0, r7
c000f298:	00000007 	andeq	r0, r0, r7
c000f29c:	00000007 	andeq	r0, r0, r7
c000f2a0:	00000007 	andeq	r0, r0, r7
c000f2a4:	00000007 	andeq	r0, r0, r7
c000f2a8:	00000007 	andeq	r0, r0, r7
c000f2ac:	00000007 	andeq	r0, r0, r7
c000f2b0:	00000007 	andeq	r0, r0, r7
c000f2b4:	00000007 	andeq	r0, r0, r7
c000f2b8:	00000007 	andeq	r0, r0, r7
c000f2bc:	00000007 	andeq	r0, r0, r7
c000f2c0:	00000007 	andeq	r0, r0, r7
c000f2c4:	00000007 	andeq	r0, r0, r7
c000f2c8:	00000007 	andeq	r0, r0, r7
c000f2cc:	00000007 	andeq	r0, r0, r7
c000f2d0:	00000007 	andeq	r0, r0, r7
c000f2d4:	00000007 	andeq	r0, r0, r7
c000f2d8:	00000007 	andeq	r0, r0, r7
c000f2dc:	00000007 	andeq	r0, r0, r7
c000f2e0:	00000007 	andeq	r0, r0, r7
c000f2e4:	00000007 	andeq	r0, r0, r7

Disassembly of section .bss:

c000f2e8 <_edata>:
c000f2e8:	00000000 	andeq	r0, r0, r0

c000f2ec <loops_per_tick>:
c000f2ec:	00000000 	andeq	r0, r0, r0

c000f2f0 <tid.4442>:
c000f2f0:	00000000 	andeq	r0, r0, r0

c000f2f4 <km0>:
	...

c000f304 <kvmzone>:
c000f304:	00000000 	andeq	r0, r0, r0

c000f308 <uvmzone>:
c000f308:	00000000 	andeq	r0, r0, r0

c000f30c <PTD>:
c000f30c:	00000000 	andeq	r0, r0, r0

c000f310 <PT>:
c000f310:	00000000 	andeq	r0, r0, r0

c000f314 <pmzone>:
	...

c000f374 <mp>:
c000f374:	00000000 	andeq	r0, r0, r0

c000f378 <ArmTimer>:
c000f378:	00000000 	andeq	r0, r0, r0

c000f37c <g_startup_time>:
c000f37c:	00000000 	andeq	r0, r0, r0

c000f380 <task0>:
c000f380:	00000000 	andeq	r0, r0, r0

c000f384 <g_resched>:
c000f384:	00000000 	andeq	r0, r0, r0

c000f388 <g_task_head>:
c000f388:	00000000 	andeq	r0, r0, r0

c000f38c <g_task_running>:
c000f38c:	00000000 	andeq	r0, r0, r0

c000f390 <g_task_own_fpu>:
c000f390:	00000000 	andeq	r0, r0, r0

c000f394 <g_ram_zone>:
	...

c000f3d4 <g_intr_vector>:
	...

Disassembly of section .ARM.attributes:

00000000 <.ARM.attributes>:
   0:	00002a41 	andeq	r2, r0, r1, asr #20
   4:	61656100 	cmnvs	r5, r0, lsl #2
   8:	01006962 	tsteq	r0, r2, ror #18
   c:	00000020 	andeq	r0, r0, r0, lsr #32
  10:	4d524105 	ldfmie	f4, [r2, #-20]	; 0xffffffec
  14:	4b367620 	blmi	d9d89c <CPSR_IRQ_INHIBIT+0xd9d81c>
  18:	08090600 	stmdaeq	r9, {r9, sl}
  1c:	12010901 	andne	r0, r1, #16384	; 0x4000
  20:	15011404 	strne	r1, [r1, #-1028]	; 0x404
  24:	18031701 	stmdane	r3, {r0, r8, r9, sl, ip}
  28:	Address 0x0000000000000028 is out of bounds.


Disassembly of section .comment:

00000000 <.comment>:
   0:	3a434347 	bcc	10d0d24 <CPSR_IRQ_INHIBIT+0x10d0ca4>
   4:	2e342820 	cdpcs	8, 3, cr2, cr4, cr0, {1}
   8:	2d322e38 	ldccs	14, cr2, [r2, #-224]!	; 0xffffff20
   c:	62753431 	rsbsvs	r3, r5, #822083584	; 0x31000000
  10:	75746e75 	ldrbvc	r6, [r4, #-3701]!	; 0xe75
  14:	29362b31 	ldmdbcs	r6!, {r0, r4, r5, r8, r9, fp, sp}
  18:	382e3420 	stmdacc	lr!, {r5, sl, ip, sp}
  1c:	Address 0x000000000000001c is out of bounds.

